ARM GAS  C:\Users\nhlan\AppData\Local\Temp\ccrObDJv.s 			page 1


   1              		.cpu cortex-m4
   2              		.arch armv7e-m
   3              		.fpu fpv4-sp-d16
   4              		.eabi_attribute 27, 1
   5              		.eabi_attribute 28, 1
   6              		.eabi_attribute 20, 1
   7              		.eabi_attribute 21, 1
   8              		.eabi_attribute 23, 3
   9              		.eabi_attribute 24, 1
  10              		.eabi_attribute 25, 1
  11              		.eabi_attribute 26, 1
  12              		.eabi_attribute 30, 1
  13              		.eabi_attribute 34, 1
  14              		.eabi_attribute 18, 4
  15              		.file	"main.c"
  16              		.text
  17              	.Ltext0:
  18              		.cfi_sections	.debug_frame
  19              		.file 1 "Core/Src/main.c"
  20              		.section	.text.MX_GPIO_Init,"ax",%progbits
  21              		.align	1
  22              		.syntax unified
  23              		.thumb
  24              		.thumb_func
  26              	MX_GPIO_Init:
  27              	.LFB142:
   1:Core/Src/main.c **** /* USER CODE BEGIN Header */
   2:Core/Src/main.c **** /**
   3:Core/Src/main.c ****   ******************************************************************************
   4:Core/Src/main.c ****   * @file           : main.c
   5:Core/Src/main.c ****   * @brief          : Main program body
   6:Core/Src/main.c ****   ******************************************************************************
   7:Core/Src/main.c ****   * @attention
   8:Core/Src/main.c ****   *
   9:Core/Src/main.c ****   * Copyright (c) 2025 STMicroelectronics.
  10:Core/Src/main.c ****   * All rights reserved.
  11:Core/Src/main.c ****   *
  12:Core/Src/main.c ****   * This software is licensed under terms that can be found in the LICENSE file
  13:Core/Src/main.c ****   * in the root directory of this software component.
  14:Core/Src/main.c ****   * If no LICENSE file comes with this software, it is provided AS-IS.
  15:Core/Src/main.c ****   *
  16:Core/Src/main.c ****   ******************************************************************************
  17:Core/Src/main.c ****   */
  18:Core/Src/main.c **** /* USER CODE END Header */
  19:Core/Src/main.c **** /* Includes ------------------------------------------------------------------*/
  20:Core/Src/main.c **** #include "main.h"
  21:Core/Src/main.c **** 
  22:Core/Src/main.c **** /* Private includes ----------------------------------------------------------*/
  23:Core/Src/main.c **** /* USER CODE BEGIN Includes */
  24:Core/Src/main.c **** #include <stdio.h>
  25:Core/Src/main.c **** #include "stm32f4xx.h"
  26:Core/Src/main.c **** #include "lcd_stm32f4.h"
  27:Core/Src/main.c **** /* USER CODE END Includes */
  28:Core/Src/main.c **** 
  29:Core/Src/main.c **** /* Private typedef -----------------------------------------------------------*/
  30:Core/Src/main.c **** /* USER CODE BEGIN PTD */
  31:Core/Src/main.c **** 
ARM GAS  C:\Users\nhlan\AppData\Local\Temp\ccrObDJv.s 			page 2


  32:Core/Src/main.c **** /* USER CODE END PTD */
  33:Core/Src/main.c **** 
  34:Core/Src/main.c **** /* Private define ------------------------------------------------------------*/
  35:Core/Src/main.c **** /* USER CODE BEGIN PD */
  36:Core/Src/main.c **** // TODO: Add values for below variables
  37:Core/Src/main.c **** #define NS 256 // Number of samples in LUT
  38:Core/Src/main.c **** #define TIM2CLK 8000000  // STM Clock frequency: Hint You might want to check the ioc file
  39:Core/Src/main.c **** #define F_SIGNAL 1// Frequency of output analog signal
  40:Core/Src/main.c **** 
  41:Core/Src/main.c **** /* USER CODE END PD */
  42:Core/Src/main.c **** 
  43:Core/Src/main.c **** /* Private macro ------------------------------------------------------------*/
  44:Core/Src/main.c **** /* USER CODE BEGIN PM */
  45:Core/Src/main.c **** 
  46:Core/Src/main.c **** /* USER CODE END PM */
  47:Core/Src/main.c **** 
  48:Core/Src/main.c **** /* Private variables ---------------------------------------------------------*/
  49:Core/Src/main.c **** TIM_HandleTypeDef htim2;
  50:Core/Src/main.c **** TIM_HandleTypeDef htim3;
  51:Core/Src/main.c **** DMA_HandleTypeDef hdma_tim2_ch1;
  52:Core/Src/main.c **** 
  53:Core/Src/main.c **** 
  54:Core/Src/main.c **** /* USER CODE BEGIN PV */
  55:Core/Src/main.c **** // TODO: Add code for global variables, including LUTs
  56:Core/Src/main.c **** uint32_t Sin_LUT[NS] = {2047, 2097, 2147, 2198, 2248, 2298, 2347, 2397, 2446, 2496, 2545, 2593, 264
  57:Core/Src/main.c **** uint32_t Saw_LUT[NS] = {0, 15, 31, 47, 63, 79, 95, 111, 127, 143, 159, 175, 191, 207, 223, 239, 255
  58:Core/Src/main.c **** uint32_t Triangle_LUT[] = {0, 31, 63, 95, 127, 159, 191, 223, 255, 287, 319, 351, 383, 415, 447, 47
  59:Core/Src/main.c **** uint32_t Piano_LUT[] = { 1901, 1206, 1077, 2791, 1808, 1778, 1971, 1843, 1715, 2048, 1947, 1902, 18
  60:Core/Src/main.c **** uint32_t Guitar_LUT[]= { 1970, 1970, 2198, 2106, 2111, 1466, 2086, 2308, 1957, 2009, 2123, 1702, 17
  61:Core/Src/main.c **** uint32_t Drum_LUT[] =  { 2047, 2052, 447, 4081, 3457, 2214, 2282, 1996, 1866, 1458, 1703, 2293, 221
  62:Core/Src/main.c **** 
  63:Core/Src/main.c **** 
  64:Core/Src/main.c **** ///hhj
  65:Core/Src/main.c **** // TODO: Equation to calculate TIM2_Ticks
  66:Core/Src/main.c **** uint32_t TIM2_Ticks = (TIM2CLK / (NS * F_SIGNAL))  ; // How often to write new LUT value
  67:Core/Src/main.c **** uint32_t DestAddress = (uint32_t) &(TIM3->CCR3); // Write LUT TO TIM3->CCR3 to modify PWM duty cycl
  68:Core/Src/main.c **** 
  69:Core/Src/main.c **** 
  70:Core/Src/main.c **** /* USER CODE END PV */
  71:Core/Src/main.c **** 
  72:Core/Src/main.c **** /* Private function prototypes -----------------------------------------------*/
  73:Core/Src/main.c **** void SystemClock_Config(void);
  74:Core/Src/main.c **** static void MX_GPIO_Init(void);
  75:Core/Src/main.c **** static void MX_DMA_Init(void);
  76:Core/Src/main.c **** static void MX_TIM2_Init(void);
  77:Core/Src/main.c **** static void MX_TIM3_Init(void);
  78:Core/Src/main.c **** /* USER CODE BEGIN PFP */
  79:Core/Src/main.c **** void EXTI0_IRQHandler(void);
  80:Core/Src/main.c **** /* USER CODE END PFP */
  81:Core/Src/main.c **** 
  82:Core/Src/main.c **** /* Private user code ---------------------------------------------------------*/
  83:Core/Src/main.c **** /* USER CODE BEGIN 0 */
  84:Core/Src/main.c **** 
  85:Core/Src/main.c **** /* USER CODE END 0 */
  86:Core/Src/main.c **** 
  87:Core/Src/main.c **** /**
  88:Core/Src/main.c ****   * @brief  The application entry point.
ARM GAS  C:\Users\nhlan\AppData\Local\Temp\ccrObDJv.s 			page 3


  89:Core/Src/main.c ****   * @retval int
  90:Core/Src/main.c ****   */
  91:Core/Src/main.c **** int main(void)
  92:Core/Src/main.c **** {
  93:Core/Src/main.c **** 
  94:Core/Src/main.c ****   /* USER CODE BEGIN 1 */
  95:Core/Src/main.c **** 
  96:Core/Src/main.c ****   /* USER CODE END 1 */
  97:Core/Src/main.c **** 
  98:Core/Src/main.c ****   /* MCU Configuration--------------------------------------------------------*/
  99:Core/Src/main.c **** 
 100:Core/Src/main.c ****   /* Reset of all peripherals, Initializes the Flash interface and the Systick. */
 101:Core/Src/main.c ****   HAL_Init();
 102:Core/Src/main.c **** 
 103:Core/Src/main.c ****   /* USER CODE BEGIN Init */
 104:Core/Src/main.c **** 
 105:Core/Src/main.c ****   /* USER CODE END Init */
 106:Core/Src/main.c **** 
 107:Core/Src/main.c ****   /* Configure the system clock */
 108:Core/Src/main.c ****   SystemClock_Config();
 109:Core/Src/main.c **** 
 110:Core/Src/main.c ****   /* USER CODE BEGIN SysInit */
 111:Core/Src/main.c **** 
 112:Core/Src/main.c ****   /* USER CODE END SysInit */
 113:Core/Src/main.c **** 
 114:Core/Src/main.c ****   /* Initialize all configured peripherals */
 115:Core/Src/main.c ****   MX_GPIO_Init();
 116:Core/Src/main.c ****   MX_DMA_Init();
 117:Core/Src/main.c ****   MX_TIM2_Init();
 118:Core/Src/main.c ****   MX_TIM3_Init();
 119:Core/Src/main.c **** 
 120:Core/Src/main.c ****   /* USER CODE BEGIN 2 */
 121:Core/Src/main.c ****  
 122:Core/Src/main.c ****   // TODO: Start TIM3 in PWM mode on channel 3
 123:Core/Src/main.c ****   HAL_TIM_PWM_Start(&htim3, TIM_CHANNEL_3);
 124:Core/Src/main.c ****   // TODO: Start TIM2 in Output Compare (OC) mode on channel 1
 125:Core/Src/main.c ****   HAL_TIM_OC_Start(&htim2,TIM_CHANNEL_1);
 126:Core/Src/main.c ****   // TODO: Start DMA in IT mode on TIM2->CH1. Source is LUT and Dest is TIM3->CCR3; start with Sine
 127:Core/Src/main.c ****  HAL_DMA_Start_IT(&hdma_tim2_ch1, (uint32_t)Sin_LUT, DestAddress , NS);
 128:Core/Src/main.c **** 
 129:Core/Src/main.c ****   // TODO: Write current waveform to LCD(Sine is the first waveform)
 130:Core/Src/main.c ****  init_LCD();
 131:Core/Src/main.c ****   lcd_command(CLEAR);
 132:Core/Src/main.c ****   lcd_command(CURSOR_HOME);
 133:Core/Src/main.c ****   lcd_putstring("Waveform: ");
 134:Core/Src/main.c ****   lcd_command(LINE_TWO);
 135:Core/Src/main.c ****   lcd_putstring("Sine");
 136:Core/Src/main.c **** 
 137:Core/Src/main.c ****   // TODO: Enable DMA (start transfer from LUT to CCR)
 138:Core/Src/main.c **** 
 139:Core/Src/main.c **** __HAL_TIM_ENABLE_DMA(&htim2, TIM_DMA_CC1);
 140:Core/Src/main.c **** 
 141:Core/Src/main.c ****   /* USER CODE END 2 */
 142:Core/Src/main.c **** 
 143:Core/Src/main.c ****   /* Infinite loop */
 144:Core/Src/main.c ****   /* USER CODE BEGIN WHILE */
 145:Core/Src/main.c ****   while (1)
ARM GAS  C:\Users\nhlan\AppData\Local\Temp\ccrObDJv.s 			page 4


 146:Core/Src/main.c ****   {
 147:Core/Src/main.c ****     /* USER CODE END WHILE */
 148:Core/Src/main.c **** 
 149:Core/Src/main.c ****     /* USER CODE BEGIN 3 */
 150:Core/Src/main.c ****   }
 151:Core/Src/main.c ****   /* USER CODE END 3 */
 152:Core/Src/main.c **** }
 153:Core/Src/main.c **** 
 154:Core/Src/main.c **** /**
 155:Core/Src/main.c ****   * @brief System Clock Configuration
 156:Core/Src/main.c ****   * @retval None
 157:Core/Src/main.c ****   */
 158:Core/Src/main.c **** void SystemClock_Config(void)
 159:Core/Src/main.c **** {
 160:Core/Src/main.c ****   RCC_OscInitTypeDef RCC_OscInitStruct = {0};
 161:Core/Src/main.c ****   RCC_ClkInitTypeDef RCC_ClkInitStruct = {0};
 162:Core/Src/main.c **** 
 163:Core/Src/main.c ****   /** Configure the main internal regulator output voltage
 164:Core/Src/main.c ****   */
 165:Core/Src/main.c ****   __HAL_RCC_PWR_CLK_ENABLE();
 166:Core/Src/main.c ****   __HAL_PWR_VOLTAGESCALING_CONFIG(PWR_REGULATOR_VOLTAGE_SCALE3);
 167:Core/Src/main.c **** 
 168:Core/Src/main.c ****   /** Initializes the RCC Oscillators according to the specified parameters
 169:Core/Src/main.c ****   * in the RCC_OscInitTypeDef structure.
 170:Core/Src/main.c ****   */
 171:Core/Src/main.c ****   RCC_OscInitStruct.OscillatorType = RCC_OSCILLATORTYPE_HSI;
 172:Core/Src/main.c ****   RCC_OscInitStruct.HSIState = RCC_HSI_ON;
 173:Core/Src/main.c ****   RCC_OscInitStruct.HSICalibrationValue = RCC_HSICALIBRATION_DEFAULT;
 174:Core/Src/main.c ****   RCC_OscInitStruct.PLL.PLLState = RCC_PLL_NONE;
 175:Core/Src/main.c ****   if (HAL_RCC_OscConfig(&RCC_OscInitStruct) != HAL_OK)
 176:Core/Src/main.c ****   {
 177:Core/Src/main.c ****     Error_Handler();
 178:Core/Src/main.c ****   }
 179:Core/Src/main.c **** 
 180:Core/Src/main.c ****   /** Initializes the CPU, AHB and APB buses clocks
 181:Core/Src/main.c ****   */
 182:Core/Src/main.c ****   RCC_ClkInitStruct.ClockType = RCC_CLOCKTYPE_HCLK|RCC_CLOCKTYPE_SYSCLK
 183:Core/Src/main.c ****                               |RCC_CLOCKTYPE_PCLK1|RCC_CLOCKTYPE_PCLK2;
 184:Core/Src/main.c ****   RCC_ClkInitStruct.SYSCLKSource = RCC_SYSCLKSOURCE_HSI;
 185:Core/Src/main.c ****   RCC_ClkInitStruct.AHBCLKDivider = RCC_SYSCLK_DIV1;
 186:Core/Src/main.c ****   RCC_ClkInitStruct.APB1CLKDivider = RCC_HCLK_DIV1;
 187:Core/Src/main.c ****   RCC_ClkInitStruct.APB2CLKDivider = RCC_HCLK_DIV1;
 188:Core/Src/main.c **** 
 189:Core/Src/main.c ****   if (HAL_RCC_ClockConfig(&RCC_ClkInitStruct, FLASH_LATENCY_0) != HAL_OK)
 190:Core/Src/main.c ****   {
 191:Core/Src/main.c ****     Error_Handler();
 192:Core/Src/main.c ****   }
 193:Core/Src/main.c **** }
 194:Core/Src/main.c **** 
 195:Core/Src/main.c **** /**
 196:Core/Src/main.c ****   * @brief TIM2 Initialization Function
 197:Core/Src/main.c ****   * @param None
 198:Core/Src/main.c ****   * @retval None
 199:Core/Src/main.c ****   */
 200:Core/Src/main.c **** static void MX_TIM2_Init(void)
 201:Core/Src/main.c **** {
 202:Core/Src/main.c **** 
ARM GAS  C:\Users\nhlan\AppData\Local\Temp\ccrObDJv.s 			page 5


 203:Core/Src/main.c ****   /* USER CODE BEGIN TIM2_Init 0 */
 204:Core/Src/main.c **** 
 205:Core/Src/main.c ****   /* USER CODE END TIM2_Init 0 */
 206:Core/Src/main.c **** 
 207:Core/Src/main.c ****   TIM_ClockConfigTypeDef sClockSourceConfig = {0};
 208:Core/Src/main.c ****   TIM_MasterConfigTypeDef sMasterConfig = {0};
 209:Core/Src/main.c ****   TIM_OC_InitTypeDef sConfigOC = {0};
 210:Core/Src/main.c **** 
 211:Core/Src/main.c ****   /* USER CODE BEGIN TIM2_Init 1 */
 212:Core/Src/main.c **** 
 213:Core/Src/main.c ****   /* USER CODE END TIM2_Init 1 */
 214:Core/Src/main.c ****   htim2.Instance = TIM2;
 215:Core/Src/main.c ****   htim2.Init.Prescaler = 0;
 216:Core/Src/main.c ****   htim2.Init.CounterMode = TIM_COUNTERMODE_UP;
 217:Core/Src/main.c ****   htim2.Init.Period = TIM2_Ticks;
 218:Core/Src/main.c ****   htim2.Init.ClockDivision = TIM_CLOCKDIVISION_DIV1;
 219:Core/Src/main.c ****   htim2.Init.AutoReloadPreload = TIM_AUTORELOAD_PRELOAD_DISABLE;
 220:Core/Src/main.c ****   if (HAL_TIM_Base_Init(&htim2) != HAL_OK)
 221:Core/Src/main.c ****   {
 222:Core/Src/main.c ****     Error_Handler();
 223:Core/Src/main.c ****   }
 224:Core/Src/main.c ****   sClockSourceConfig.ClockSource = TIM_CLOCKSOURCE_INTERNAL;
 225:Core/Src/main.c ****   if (HAL_TIM_ConfigClockSource(&htim2, &sClockSourceConfig) != HAL_OK)
 226:Core/Src/main.c ****   {
 227:Core/Src/main.c ****     Error_Handler();
 228:Core/Src/main.c ****   }
 229:Core/Src/main.c ****   if (HAL_TIM_OC_Init(&htim2) != HAL_OK)
 230:Core/Src/main.c ****   {
 231:Core/Src/main.c ****     Error_Handler();
 232:Core/Src/main.c ****   }
 233:Core/Src/main.c ****   sMasterConfig.MasterOutputTrigger = TIM_TRGO_RESET;
 234:Core/Src/main.c ****   sMasterConfig.MasterSlaveMode = TIM_MASTERSLAVEMODE_DISABLE;
 235:Core/Src/main.c ****   if (HAL_TIMEx_MasterConfigSynchronization(&htim2, &sMasterConfig) != HAL_OK)
 236:Core/Src/main.c ****   {
 237:Core/Src/main.c ****     Error_Handler();
 238:Core/Src/main.c ****   }
 239:Core/Src/main.c ****   sConfigOC.OCMode = TIM_OCMODE_TIMING;
 240:Core/Src/main.c **** 
 241:Core/Src/main.c ****   sConfigOC.Pulse = TIM2_Ticks - 1;
 242:Core/Src/main.c ****   sConfigOC.OCPolarity = TIM_OCPOLARITY_HIGH;
 243:Core/Src/main.c ****   sConfigOC.OCFastMode = TIM_OCFAST_DISABLE;
 244:Core/Src/main.c ****   if (HAL_TIM_OC_ConfigChannel(&htim2, &sConfigOC, TIM_CHANNEL_1) != HAL_OK)
 245:Core/Src/main.c ****   {
 246:Core/Src/main.c ****     Error_Handler();
 247:Core/Src/main.c ****   }
 248:Core/Src/main.c ****   /* USER CODE BEGIN TIM2_Init 2 */
 249:Core/Src/main.c ****   /* TIM2_CH1 DMA Init */
 250:Core/Src/main.c ****   __HAL_RCC_DMA1_CLK_ENABLE();
 251:Core/Src/main.c **** 
 252:Core/Src/main.c ****   hdma_tim2_ch1.Instance = DMA1_Stream5;
 253:Core/Src/main.c ****   hdma_tim2_ch1.Init.Channel = DMA_CHANNEL_3;         // TIM2_CH1 is on channel 3
 254:Core/Src/main.c ****   hdma_tim2_ch1.Init.Direction = DMA_MEMORY_TO_PERIPH; // Memory -> TIM3->CCR3
 255:Core/Src/main.c ****   hdma_tim2_ch1.Init.PeriphInc = DMA_PINC_DISABLE;    // Peripheral address fixed
 256:Core/Src/main.c ****   hdma_tim2_ch1.Init.MemInc = DMA_MINC_ENABLE;        // Memory address increments
 257:Core/Src/main.c ****   hdma_tim2_ch1.Init.PeriphDataAlignment = DMA_PDATAALIGN_WORD;
 258:Core/Src/main.c ****   hdma_tim2_ch1.Init.MemDataAlignment = DMA_MDATAALIGN_WORD;
 259:Core/Src/main.c ****   hdma_tim2_ch1.Init.Mode = DMA_CIRCULAR;            // Repeat LUT automatically
ARM GAS  C:\Users\nhlan\AppData\Local\Temp\ccrObDJv.s 			page 6


 260:Core/Src/main.c ****   hdma_tim2_ch1.Init.Priority = DMA_PRIORITY_HIGH;
 261:Core/Src/main.c ****   hdma_tim2_ch1.Init.FIFOMode = DMA_FIFOMODE_DISABLE;
 262:Core/Src/main.c **** 
 263:Core/Src/main.c ****   if (HAL_DMA_Init(&hdma_tim2_ch1) != HAL_OK)
 264:Core/Src/main.c ****   {
 265:Core/Src/main.c ****       Error_Handler();
 266:Core/Src/main.c ****   }
 267:Core/Src/main.c **** 
 268:Core/Src/main.c ****   /* Link DMA handle to TIM2 handle */
 269:Core/Src/main.c ****   __HAL_LINKDMA(&htim2, hdma[TIM_DMA_ID_CC1], hdma_tim2_ch1);
 270:Core/Src/main.c ****   /* USER CODE END TIM2_Init 2 */
 271:Core/Src/main.c **** 
 272:Core/Src/main.c **** }
 273:Core/Src/main.c **** 
 274:Core/Src/main.c **** /**
 275:Core/Src/main.c ****   * @brief TIM3 Initialization Function
 276:Core/Src/main.c ****   * @param None
 277:Core/Src/main.c ****   * @retval None
 278:Core/Src/main.c ****   */
 279:Core/Src/main.c **** static void MX_TIM3_Init(void)
 280:Core/Src/main.c **** {
 281:Core/Src/main.c **** 
 282:Core/Src/main.c ****   /* USER CODE BEGIN TIM3_Init 0 */
 283:Core/Src/main.c **** 
 284:Core/Src/main.c ****   /* USER CODE END TIM3_Init 0 */
 285:Core/Src/main.c **** 
 286:Core/Src/main.c ****   TIM_ClockConfigTypeDef sClockSourceConfig = {0};
 287:Core/Src/main.c ****   TIM_MasterConfigTypeDef sMasterConfig = {0};
 288:Core/Src/main.c ****   TIM_OC_InitTypeDef sConfigOC = {0};
 289:Core/Src/main.c **** 
 290:Core/Src/main.c ****   /* USER CODE BEGIN TIM3_Init 1 */
 291:Core/Src/main.c **** 
 292:Core/Src/main.c ****   /* USER CODE END TIM3_Init 1 */
 293:Core/Src/main.c ****   htim3.Instance = TIM3;
 294:Core/Src/main.c ****   htim3.Init.Prescaler = 0;
 295:Core/Src/main.c ****   htim3.Init.CounterMode = TIM_COUNTERMODE_UP;
 296:Core/Src/main.c ****   htim3.Init.Period = 4095;
 297:Core/Src/main.c ****   htim3.Init.ClockDivision = TIM_CLOCKDIVISION_DIV1;
 298:Core/Src/main.c ****   htim3.Init.AutoReloadPreload = TIM_AUTORELOAD_PRELOAD_DISABLE;
 299:Core/Src/main.c ****   if (HAL_TIM_Base_Init(&htim3) != HAL_OK)
 300:Core/Src/main.c ****   {
 301:Core/Src/main.c ****     Error_Handler();
 302:Core/Src/main.c ****   }
 303:Core/Src/main.c ****   sClockSourceConfig.ClockSource = TIM_CLOCKSOURCE_INTERNAL;
 304:Core/Src/main.c ****   if (HAL_TIM_ConfigClockSource(&htim3, &sClockSourceConfig) != HAL_OK)
 305:Core/Src/main.c ****   {
 306:Core/Src/main.c ****     Error_Handler();
 307:Core/Src/main.c ****   }
 308:Core/Src/main.c ****   if (HAL_TIM_PWM_Init(&htim3) != HAL_OK)
 309:Core/Src/main.c ****   {
 310:Core/Src/main.c ****     Error_Handler();
 311:Core/Src/main.c ****   }
 312:Core/Src/main.c ****   sMasterConfig.MasterOutputTrigger = TIM_TRGO_RESET;
 313:Core/Src/main.c ****   sMasterConfig.MasterSlaveMode = TIM_MASTERSLAVEMODE_DISABLE;
 314:Core/Src/main.c ****   if (HAL_TIMEx_MasterConfigSynchronization(&htim3, &sMasterConfig) != HAL_OK)
 315:Core/Src/main.c ****   {
 316:Core/Src/main.c ****     Error_Handler();
ARM GAS  C:\Users\nhlan\AppData\Local\Temp\ccrObDJv.s 			page 7


 317:Core/Src/main.c ****   }
 318:Core/Src/main.c ****   sConfigOC.OCMode = TIM_OCMODE_PWM1;
 319:Core/Src/main.c ****   sConfigOC.Pulse = 0;
 320:Core/Src/main.c ****   sConfigOC.OCPolarity = TIM_OCPOLARITY_HIGH;
 321:Core/Src/main.c ****   sConfigOC.OCFastMode = TIM_OCFAST_DISABLE;
 322:Core/Src/main.c ****   if (HAL_TIM_PWM_ConfigChannel(&htim3, &sConfigOC, TIM_CHANNEL_3) != HAL_OK)
 323:Core/Src/main.c ****   {
 324:Core/Src/main.c ****     Error_Handler();
 325:Core/Src/main.c ****   }
 326:Core/Src/main.c ****   /* USER CODE BEGIN TIM3_Init 2 */
 327:Core/Src/main.c **** 
 328:Core/Src/main.c ****   /* USER CODE END TIM3_Init 2 */
 329:Core/Src/main.c ****   HAL_TIM_MspPostInit(&htim3);
 330:Core/Src/main.c **** 
 331:Core/Src/main.c **** }
 332:Core/Src/main.c **** 
 333:Core/Src/main.c **** /**
 334:Core/Src/main.c ****   * Enable DMA controller clock
 335:Core/Src/main.c ****   */
 336:Core/Src/main.c **** static void MX_DMA_Init(void)
 337:Core/Src/main.c **** {
 338:Core/Src/main.c **** 
 339:Core/Src/main.c ****   /* DMA controller clock enable */
 340:Core/Src/main.c ****   __HAL_RCC_DMA1_CLK_ENABLE();
 341:Core/Src/main.c **** 
 342:Core/Src/main.c ****   /* DMA interrupt init */
 343:Core/Src/main.c ****   /* DMA1_Stream5_IRQn interrupt configuration */
 344:Core/Src/main.c ****   HAL_NVIC_SetPriority(DMA1_Stream5_IRQn, 0, 0);
 345:Core/Src/main.c ****   HAL_NVIC_EnableIRQ(DMA1_Stream5_IRQn);
 346:Core/Src/main.c **** 
 347:Core/Src/main.c **** }
 348:Core/Src/main.c **** 
 349:Core/Src/main.c **** /**
 350:Core/Src/main.c ****   * @brief GPIO Initialization Function
 351:Core/Src/main.c ****   * @param None
 352:Core/Src/main.c ****   * @retval None
 353:Core/Src/main.c ****   */
 354:Core/Src/main.c **** static void MX_GPIO_Init(void)
 355:Core/Src/main.c **** {
  28              		.loc 1 355 1 view -0
  29              		.cfi_startproc
  30              		@ args = 0, pretend = 0, frame = 32
  31              		@ frame_needed = 0, uses_anonymous_args = 0
  32 0000 2DE9F04F 		push	{r4, r5, r6, r7, r8, r9, r10, fp, lr}
  33              		.cfi_def_cfa_offset 36
  34              		.cfi_offset 4, -36
  35              		.cfi_offset 5, -32
  36              		.cfi_offset 6, -28
  37              		.cfi_offset 7, -24
  38              		.cfi_offset 8, -20
  39              		.cfi_offset 9, -16
  40              		.cfi_offset 10, -12
  41              		.cfi_offset 11, -8
  42              		.cfi_offset 14, -4
  43 0004 89B0     		sub	sp, sp, #36
  44              		.cfi_def_cfa_offset 72
 356:Core/Src/main.c ****   GPIO_InitTypeDef GPIO_InitStruct = {0};
ARM GAS  C:\Users\nhlan\AppData\Local\Temp\ccrObDJv.s 			page 8


  45              		.loc 1 356 3 view .LVU1
  46              		.loc 1 356 20 is_stmt 0 view .LVU2
  47 0006 03AD     		add	r5, sp, #12
  48 0008 0024     		movs	r4, #0
  49 000a 0394     		str	r4, [sp, #12]
  50 000c 0494     		str	r4, [sp, #16]
  51 000e 0594     		str	r4, [sp, #20]
  52 0010 0694     		str	r4, [sp, #24]
  53 0012 0794     		str	r4, [sp, #28]
 357:Core/Src/main.c ****   /* USER CODE BEGIN MX_GPIO_Init_1 */
 358:Core/Src/main.c **** 
 359:Core/Src/main.c ****   /* USER CODE END MX_GPIO_Init_1 */
 360:Core/Src/main.c **** 
 361:Core/Src/main.c ****   /* GPIO Ports Clock Enable */
 362:Core/Src/main.c ****   __HAL_RCC_GPIOH_CLK_ENABLE();
  54              		.loc 1 362 3 is_stmt 1 view .LVU3
  55              	.LBB4:
  56              		.loc 1 362 3 view .LVU4
  57 0014 0094     		str	r4, [sp]
  58              		.loc 1 362 3 view .LVU5
  59 0016 2F4B     		ldr	r3, .L3
  60 0018 1A6B     		ldr	r2, [r3, #48]
  61 001a 42F08002 		orr	r2, r2, #128
  62 001e 1A63     		str	r2, [r3, #48]
  63              		.loc 1 362 3 view .LVU6
  64 0020 1A6B     		ldr	r2, [r3, #48]
  65 0022 02F08002 		and	r2, r2, #128
  66 0026 0092     		str	r2, [sp]
  67              		.loc 1 362 3 view .LVU7
  68 0028 009A     		ldr	r2, [sp]
  69              	.LBE4:
  70              		.loc 1 362 3 view .LVU8
 363:Core/Src/main.c ****   __HAL_RCC_GPIOA_CLK_ENABLE();
  71              		.loc 1 363 3 view .LVU9
  72              	.LBB5:
  73              		.loc 1 363 3 view .LVU10
  74 002a 0194     		str	r4, [sp, #4]
  75              		.loc 1 363 3 view .LVU11
  76 002c 1A6B     		ldr	r2, [r3, #48]
  77 002e 42F00102 		orr	r2, r2, #1
  78 0032 1A63     		str	r2, [r3, #48]
  79              		.loc 1 363 3 view .LVU12
  80 0034 1A6B     		ldr	r2, [r3, #48]
  81 0036 02F00102 		and	r2, r2, #1
  82 003a 0192     		str	r2, [sp, #4]
  83              		.loc 1 363 3 view .LVU13
  84 003c 019A     		ldr	r2, [sp, #4]
  85              	.LBE5:
  86              		.loc 1 363 3 view .LVU14
 364:Core/Src/main.c ****   __HAL_RCC_GPIOB_CLK_ENABLE();
  87              		.loc 1 364 3 view .LVU15
  88              	.LBB6:
  89              		.loc 1 364 3 view .LVU16
  90 003e 0294     		str	r4, [sp, #8]
  91              		.loc 1 364 3 view .LVU17
  92 0040 1A6B     		ldr	r2, [r3, #48]
  93 0042 42F00202 		orr	r2, r2, #2
ARM GAS  C:\Users\nhlan\AppData\Local\Temp\ccrObDJv.s 			page 9


  94 0046 1A63     		str	r2, [r3, #48]
  95              		.loc 1 364 3 view .LVU18
  96 0048 1B6B     		ldr	r3, [r3, #48]
  97 004a 03F00203 		and	r3, r3, #2
  98 004e 0293     		str	r3, [sp, #8]
  99              		.loc 1 364 3 view .LVU19
 100 0050 029B     		ldr	r3, [sp, #8]
 101              	.LBE6:
 102              		.loc 1 364 3 view .LVU20
 365:Core/Src/main.c **** 
 366:Core/Src/main.c ****   // -------------------------------
 367:Core/Src/main.c ****   // LCD pins configuration
 368:Core/Src/main.c ****   // -------------------------------
 369:Core/Src/main.c ****   // Configure PC14 (RS) and PC15 (E) as output push-pull
 370:Core/Src/main.c ****   GPIO_InitStruct.Pin = GPIO_PIN_14 | GPIO_PIN_15;
 103              		.loc 1 370 3 view .LVU21
 104              		.loc 1 370 23 is_stmt 0 view .LVU22
 105 0052 4FF4404B 		mov	fp, #49152
 106 0056 CDF80CB0 		str	fp, [sp, #12]
 371:Core/Src/main.c ****   GPIO_InitStruct.Mode = GPIO_MODE_OUTPUT_PP;
 107              		.loc 1 371 3 is_stmt 1 view .LVU23
 108              		.loc 1 371 24 is_stmt 0 view .LVU24
 109 005a 0127     		movs	r7, #1
 110 005c 0497     		str	r7, [sp, #16]
 372:Core/Src/main.c ****   GPIO_InitStruct.Pull = GPIO_NOPULL;
 111              		.loc 1 372 3 is_stmt 1 view .LVU25
 373:Core/Src/main.c ****   GPIO_InitStruct.Speed = GPIO_SPEED_FREQ_LOW;
 112              		.loc 1 373 3 view .LVU26
 374:Core/Src/main.c ****   HAL_GPIO_Init(GPIOC, &GPIO_InitStruct);
 113              		.loc 1 374 3 view .LVU27
 114 005e DFF880A0 		ldr	r10, .L3+12
 115 0062 2946     		mov	r1, r5
 116 0064 5046     		mov	r0, r10
 117 0066 FFF7FEFF 		bl	HAL_GPIO_Init
 118              	.LVL0:
 375:Core/Src/main.c **** 
 376:Core/Src/main.c ****   // Configure PB8 (D4) and PB9 (D5) as output push-pull
 377:Core/Src/main.c ****   GPIO_InitStruct.Pin = GPIO_PIN_8 | GPIO_PIN_9;
 119              		.loc 1 377 3 view .LVU28
 120              		.loc 1 377 23 is_stmt 0 view .LVU29
 121 006a 4FF44079 		mov	r9, #768
 122 006e CDF80C90 		str	r9, [sp, #12]
 378:Core/Src/main.c ****   HAL_GPIO_Init(GPIOB, &GPIO_InitStruct);
 123              		.loc 1 378 3 is_stmt 1 view .LVU30
 124 0072 2946     		mov	r1, r5
 125 0074 1848     		ldr	r0, .L3+4
 126 0076 FFF7FEFF 		bl	HAL_GPIO_Init
 127              	.LVL1:
 379:Core/Src/main.c **** 
 380:Core/Src/main.c ****   // Configure PA12 (D6) and PA15 (D7) as output push-pull
 381:Core/Src/main.c ****   GPIO_InitStruct.Pin = GPIO_PIN_12 | GPIO_PIN_15;
 128              		.loc 1 381 3 view .LVU31
 129              		.loc 1 381 23 is_stmt 0 view .LVU32
 130 007a 4FF41048 		mov	r8, #36864
 131 007e CDF80C80 		str	r8, [sp, #12]
 382:Core/Src/main.c ****   HAL_GPIO_Init(GPIOA, &GPIO_InitStruct);
 132              		.loc 1 382 3 is_stmt 1 view .LVU33
ARM GAS  C:\Users\nhlan\AppData\Local\Temp\ccrObDJv.s 			page 10


 133 0082 164E     		ldr	r6, .L3+8
 134 0084 2946     		mov	r1, r5
 135 0086 3046     		mov	r0, r6
 136 0088 FFF7FEFF 		bl	HAL_GPIO_Init
 137              	.LVL2:
 383:Core/Src/main.c **** 
 384:Core/Src/main.c ****   // Set all LCD pins LOW initially
 385:Core/Src/main.c ****   HAL_GPIO_WritePin(GPIOC, GPIO_PIN_14 | GPIO_PIN_15, GPIO_PIN_RESET);
 138              		.loc 1 385 3 view .LVU34
 139 008c 2246     		mov	r2, r4
 140 008e 5946     		mov	r1, fp
 141 0090 5046     		mov	r0, r10
 142 0092 FFF7FEFF 		bl	HAL_GPIO_WritePin
 143              	.LVL3:
 386:Core/Src/main.c ****   HAL_GPIO_WritePin(GPIOB, GPIO_PIN_8 | GPIO_PIN_9, GPIO_PIN_RESET);
 144              		.loc 1 386 3 view .LVU35
 145 0096 2246     		mov	r2, r4
 146 0098 4946     		mov	r1, r9
 147 009a 0F48     		ldr	r0, .L3+4
 148 009c FFF7FEFF 		bl	HAL_GPIO_WritePin
 149              	.LVL4:
 387:Core/Src/main.c ****   HAL_GPIO_WritePin(GPIOA, GPIO_PIN_12 | GPIO_PIN_15, GPIO_PIN_RESET);
 150              		.loc 1 387 3 view .LVU36
 151 00a0 2246     		mov	r2, r4
 152 00a2 4146     		mov	r1, r8
 153 00a4 3046     		mov	r0, r6
 154 00a6 FFF7FEFF 		bl	HAL_GPIO_WritePin
 155              	.LVL5:
 388:Core/Src/main.c **** 
 389:Core/Src/main.c **** 
 390:Core/Src/main.c ****   // -------------------------------
 391:Core/Src/main.c ****   // Button0 configuration (PA0)
 392:Core/Src/main.c ****   // -------------------------------
 393:Core/Src/main.c ****   GPIO_InitStruct.Pin = Button0_Pin;
 156              		.loc 1 393 3 view .LVU37
 157              		.loc 1 393 23 is_stmt 0 view .LVU38
 158 00aa 0397     		str	r7, [sp, #12]
 394:Core/Src/main.c ****   GPIO_InitStruct.Mode = GPIO_MODE_IT_RISING; // Interrupt on rising edge
 159              		.loc 1 394 3 is_stmt 1 view .LVU39
 160              		.loc 1 394 24 is_stmt 0 view .LVU40
 161 00ac 4FF48813 		mov	r3, #1114112
 162 00b0 0493     		str	r3, [sp, #16]
 395:Core/Src/main.c ****   GPIO_InitStruct.Pull = GPIO_PULLUP;         // Use pull-up resistor
 163              		.loc 1 395 3 is_stmt 1 view .LVU41
 164              		.loc 1 395 24 is_stmt 0 view .LVU42
 165 00b2 0597     		str	r7, [sp, #20]
 396:Core/Src/main.c ****   HAL_GPIO_Init(GPIOA, &GPIO_InitStruct);
 166              		.loc 1 396 3 is_stmt 1 view .LVU43
 167 00b4 2946     		mov	r1, r5
 168 00b6 3046     		mov	r0, r6
 169 00b8 FFF7FEFF 		bl	HAL_GPIO_Init
 170              	.LVL6:
 397:Core/Src/main.c **** 
 398:Core/Src/main.c ****   // Enable and set EXTI line 0 interrupt priority
 399:Core/Src/main.c ****   HAL_NVIC_SetPriority(EXTI0_IRQn, 2, 0);
 171              		.loc 1 399 3 view .LVU44
 172 00bc 2246     		mov	r2, r4
ARM GAS  C:\Users\nhlan\AppData\Local\Temp\ccrObDJv.s 			page 11


 173 00be 0221     		movs	r1, #2
 174 00c0 0620     		movs	r0, #6
 175 00c2 FFF7FEFF 		bl	HAL_NVIC_SetPriority
 176              	.LVL7:
 400:Core/Src/main.c ****   HAL_NVIC_EnableIRQ(EXTI0_IRQn);
 177              		.loc 1 400 3 view .LVU45
 178 00c6 0620     		movs	r0, #6
 179 00c8 FFF7FEFF 		bl	HAL_NVIC_EnableIRQ
 180              	.LVL8:
 401:Core/Src/main.c **** 
 402:Core/Src/main.c ****   /* USER CODE END MX_GPIO_Init_2 */
 403:Core/Src/main.c **** }
 181              		.loc 1 403 1 is_stmt 0 view .LVU46
 182 00cc 09B0     		add	sp, sp, #36
 183              		.cfi_def_cfa_offset 36
 184              		@ sp needed
 185 00ce BDE8F08F 		pop	{r4, r5, r6, r7, r8, r9, r10, fp, pc}
 186              	.L4:
 187 00d2 00BF     		.align	2
 188              	.L3:
 189 00d4 00380240 		.word	1073887232
 190 00d8 00040240 		.word	1073873920
 191 00dc 00000240 		.word	1073872896
 192 00e0 00080240 		.word	1073874944
 193              		.cfi_endproc
 194              	.LFE142:
 196              		.section	.text.MX_DMA_Init,"ax",%progbits
 197              		.align	1
 198              		.syntax unified
 199              		.thumb
 200              		.thumb_func
 202              	MX_DMA_Init:
 203              	.LFB141:
 337:Core/Src/main.c **** 
 204              		.loc 1 337 1 is_stmt 1 view -0
 205              		.cfi_startproc
 206              		@ args = 0, pretend = 0, frame = 8
 207              		@ frame_needed = 0, uses_anonymous_args = 0
 208 0000 00B5     		push	{lr}
 209              		.cfi_def_cfa_offset 4
 210              		.cfi_offset 14, -4
 211 0002 83B0     		sub	sp, sp, #12
 212              		.cfi_def_cfa_offset 16
 340:Core/Src/main.c **** 
 213              		.loc 1 340 3 view .LVU48
 214              	.LBB7:
 340:Core/Src/main.c **** 
 215              		.loc 1 340 3 view .LVU49
 216 0004 0021     		movs	r1, #0
 217 0006 0191     		str	r1, [sp, #4]
 340:Core/Src/main.c **** 
 218              		.loc 1 340 3 view .LVU50
 219 0008 094B     		ldr	r3, .L7
 220 000a 1A6B     		ldr	r2, [r3, #48]
 221 000c 42F40012 		orr	r2, r2, #2097152
 222 0010 1A63     		str	r2, [r3, #48]
 340:Core/Src/main.c **** 
ARM GAS  C:\Users\nhlan\AppData\Local\Temp\ccrObDJv.s 			page 12


 223              		.loc 1 340 3 view .LVU51
 224 0012 1B6B     		ldr	r3, [r3, #48]
 225 0014 03F40013 		and	r3, r3, #2097152
 226 0018 0193     		str	r3, [sp, #4]
 340:Core/Src/main.c **** 
 227              		.loc 1 340 3 view .LVU52
 228 001a 019B     		ldr	r3, [sp, #4]
 229              	.LBE7:
 340:Core/Src/main.c **** 
 230              		.loc 1 340 3 view .LVU53
 344:Core/Src/main.c ****   HAL_NVIC_EnableIRQ(DMA1_Stream5_IRQn);
 231              		.loc 1 344 3 view .LVU54
 232 001c 0A46     		mov	r2, r1
 233 001e 1020     		movs	r0, #16
 234 0020 FFF7FEFF 		bl	HAL_NVIC_SetPriority
 235              	.LVL9:
 345:Core/Src/main.c **** 
 236              		.loc 1 345 3 view .LVU55
 237 0024 1020     		movs	r0, #16
 238 0026 FFF7FEFF 		bl	HAL_NVIC_EnableIRQ
 239              	.LVL10:
 347:Core/Src/main.c **** 
 240              		.loc 1 347 1 is_stmt 0 view .LVU56
 241 002a 03B0     		add	sp, sp, #12
 242              		.cfi_def_cfa_offset 4
 243              		@ sp needed
 244 002c 5DF804FB 		ldr	pc, [sp], #4
 245              	.L8:
 246              		.align	2
 247              	.L7:
 248 0030 00380240 		.word	1073887232
 249              		.cfi_endproc
 250              	.LFE141:
 252              		.section	.rodata.EXTI0_IRQHandler.str1.4,"aMS",%progbits,1
 253              		.align	2
 254              	.LC0:
 255 0000 57617665 		.ascii	"Waveform:\000"
 255      666F726D 
 255      3A00
 256              		.section	.text.EXTI0_IRQHandler,"ax",%progbits
 257              		.align	1
 258              		.global	EXTI0_IRQHandler
 259              		.syntax unified
 260              		.thumb
 261              		.thumb_func
 263              	EXTI0_IRQHandler:
 264              	.LFB143:
 404:Core/Src/main.c **** volatile uint32_t lastDebounceTick = 0;
 405:Core/Src/main.c **** #define DEBOUNCE_DELAY 200  // ms
 406:Core/Src/main.c **** //extern uint32_t Sin_LUT[NS];
 407:Core/Src/main.c **** 
 408:Core/Src/main.c **** // Add other LUTs here
 409:Core/Src/main.c **** typedef enum {
 410:Core/Src/main.c ****     WAVE_SINE = 0,
 411:Core/Src/main.c ****     WAVE_SAW,
 412:Core/Src/main.c ****     WAVE_TRIANGLE,
 413:Core/Src/main.c ****     WAVE_PIANO,
ARM GAS  C:\Users\nhlan\AppData\Local\Temp\ccrObDJv.s 			page 13


 414:Core/Src/main.c ****     WAVE_GUITAR,
 415:Core/Src/main.c ****     WAVE_DRUM,
 416:Core/Src/main.c ****     WAVE_COUNT
 417:Core/Src/main.c **** } WaveformType;
 418:Core/Src/main.c **** 
 419:Core/Src/main.c **** volatile WaveformType currentWave = WAVE_SINE;
 420:Core/Src/main.c **** // enum to track which waveform is active
 421:Core/Src/main.c **** uint32_t* waveforms[WAVE_COUNT] = {
 422:Core/Src/main.c ****     Sin_LUT,     // WAVE_SINE
 423:Core/Src/main.c ****     Saw_LUT,     // WAVE_SAW
 424:Core/Src/main.c ****     Triangle_LUT,     // WAVE_TRIANGLE
 425:Core/Src/main.c ****     Piano_LUT,   // WAVE_PIANO
 426:Core/Src/main.c ****     Guitar_LUT,  // WAVE_GUITAR
 427:Core/Src/main.c ****     Drum_LUT     // WAVE_DRUM
 428:Core/Src/main.c **** };
 429:Core/Src/main.c **** //A table of pointers for the wave forms
 430:Core/Src/main.c **** const char* waveNames[WAVE_COUNT] = {
 431:Core/Src/main.c ****     "Sine", "Sawtooth", "Triangle", "Piano", "Guitar", "Drum"
 432:Core/Src/main.c **** };
 433:Core/Src/main.c **** 
 434:Core/Src/main.c **** 
 435:Core/Src/main.c **** /* USER CODE BEGIN 4 */
 436:Core/Src/main.c **** void EXTI0_IRQHandler(void){
 265              		.loc 1 436 28 is_stmt 1 view -0
 266              		.cfi_startproc
 267              		@ args = 0, pretend = 0, frame = 0
 268              		@ frame_needed = 0, uses_anonymous_args = 0
 269 0000 70B5     		push	{r4, r5, r6, lr}
 270              		.cfi_def_cfa_offset 16
 271              		.cfi_offset 4, -16
 272              		.cfi_offset 5, -12
 273              		.cfi_offset 6, -8
 274              		.cfi_offset 14, -4
 437:Core/Src/main.c **** 
 438:Core/Src/main.c **** 	// TODO: Debounce using HAL_GetTick()
 439:Core/Src/main.c **** 	// TODO: Disable DMA transfer and abort IT, then start DMA in IT mode with new LUT and re-enable t
 440:Core/Src/main.c **** 	// HINT: Consider using C's "switch" function to handle LUT changes
 441:Core/Src/main.c **** HAL_GPIO_EXTI_IRQHandler(GPIO_PIN_0); // Clear interrupt
 275              		.loc 1 441 1 view .LVU58
 276 0002 0120     		movs	r0, #1
 277 0004 FFF7FEFF 		bl	HAL_GPIO_EXTI_IRQHandler
 278              	.LVL11:
 442:Core/Src/main.c **** 
 443:Core/Src/main.c ****     uint32_t tick = HAL_GetTick();
 279              		.loc 1 443 5 view .LVU59
 280              		.loc 1 443 21 is_stmt 0 view .LVU60
 281 0008 FFF7FEFF 		bl	HAL_GetTick
 282              	.LVL12:
 444:Core/Src/main.c ****     if ((tick - lastDebounceTick) > DEBOUNCE_DELAY)
 283              		.loc 1 444 5 is_stmt 1 view .LVU61
 284              		.loc 1 444 15 is_stmt 0 view .LVU62
 285 000c 224B     		ldr	r3, .L13
 286 000e 1B68     		ldr	r3, [r3]
 287 0010 C31A     		subs	r3, r0, r3
 288              		.loc 1 444 8 view .LVU63
 289 0012 C82B     		cmp	r3, #200
 290 0014 00D8     		bhi	.L12
ARM GAS  C:\Users\nhlan\AppData\Local\Temp\ccrObDJv.s 			page 14


 291              	.LVL13:
 292              	.L9:
 445:Core/Src/main.c ****     {
 446:Core/Src/main.c ****         lastDebounceTick = tick;
 447:Core/Src/main.c **** 
 448:Core/Src/main.c ****         // Stop current DMA
 449:Core/Src/main.c ****         __HAL_TIM_DISABLE_DMA(&htim2, TIM_DMA_CC1);
 450:Core/Src/main.c ****         HAL_DMA_Abort_IT(&hdma_tim2_ch1);
 451:Core/Src/main.c **** 
 452:Core/Src/main.c ****         // Move to next waveform
 453:Core/Src/main.c ****         currentWave = (currentWave + 1) % WAVE_COUNT;
 454:Core/Src/main.c **** 
 455:Core/Src/main.c ****       HAL_DMA_Start_IT(&hdma_tim2_ch1,(uint32_t)waveforms[currentWave],DestAddress, NS);
 456:Core/Src/main.c **** 
 457:Core/Src/main.c ****         __HAL_TIM_ENABLE_DMA(&htim2, TIM_DMA_CC1);
 458:Core/Src/main.c ****         HAL_GPIO_WritePin(GPIOA, GPIO_PIN_5, GPIO_PIN_SET);
 459:Core/Src/main.c ****         // Update LCD
 460:Core/Src/main.c ****         lcd_command(CLEAR);
 461:Core/Src/main.c ****         lcd_command(CURSOR_HOME);
 462:Core/Src/main.c ****         lcd_putstring("Waveform:");
 463:Core/Src/main.c ****         lcd_command(LINE_TWO);
 464:Core/Src/main.c ****         lcd_putstring((char*)waveNames[currentWave]);
 465:Core/Src/main.c ****     }
 466:Core/Src/main.c **** }
 293              		.loc 1 466 1 view .LVU64
 294 0016 70BD     		pop	{r4, r5, r6, pc}
 295              	.LVL14:
 296              	.L12:
 446:Core/Src/main.c **** 
 297              		.loc 1 446 9 is_stmt 1 view .LVU65
 446:Core/Src/main.c **** 
 298              		.loc 1 446 26 is_stmt 0 view .LVU66
 299 0018 1F4B     		ldr	r3, .L13
 300 001a 1860     		str	r0, [r3]
 449:Core/Src/main.c ****         HAL_DMA_Abort_IT(&hdma_tim2_ch1);
 301              		.loc 1 449 9 is_stmt 1 view .LVU67
 302 001c 1F4D     		ldr	r5, .L13+4
 303 001e 2A68     		ldr	r2, [r5]
 304 0020 D368     		ldr	r3, [r2, #12]
 305 0022 23F40073 		bic	r3, r3, #512
 306 0026 D360     		str	r3, [r2, #12]
 450:Core/Src/main.c **** 
 307              		.loc 1 450 9 view .LVU68
 308 0028 1D4E     		ldr	r6, .L13+8
 309 002a 3046     		mov	r0, r6
 310              	.LVL15:
 450:Core/Src/main.c **** 
 311              		.loc 1 450 9 is_stmt 0 view .LVU69
 312 002c FFF7FEFF 		bl	HAL_DMA_Abort_IT
 313              	.LVL16:
 453:Core/Src/main.c **** 
 314              		.loc 1 453 9 is_stmt 1 view .LVU70
 453:Core/Src/main.c **** 
 315              		.loc 1 453 36 is_stmt 0 view .LVU71
 316 0030 1C4C     		ldr	r4, .L13+12
 317 0032 2378     		ldrb	r3, [r4]	@ zero_extendqisi2
 318 0034 0133     		adds	r3, r3, #1
ARM GAS  C:\Users\nhlan\AppData\Local\Temp\ccrObDJv.s 			page 15


 453:Core/Src/main.c **** 
 319              		.loc 1 453 41 view .LVU72
 320 0036 1C4A     		ldr	r2, .L13+16
 321 0038 82FB0312 		smull	r1, r2, r2, r3
 322 003c 02EB4202 		add	r2, r2, r2, lsl #1
 323 0040 A3EB4203 		sub	r3, r3, r2, lsl #1
 324 0044 DBB2     		uxtb	r3, r3
 453:Core/Src/main.c **** 
 325              		.loc 1 453 21 view .LVU73
 326 0046 2370     		strb	r3, [r4]
 455:Core/Src/main.c **** 
 327              		.loc 1 455 7 is_stmt 1 view .LVU74
 455:Core/Src/main.c **** 
 328              		.loc 1 455 58 is_stmt 0 view .LVU75
 329 0048 2078     		ldrb	r0, [r4]	@ zero_extendqisi2
 455:Core/Src/main.c **** 
 330              		.loc 1 455 7 view .LVU76
 331 004a 4FF48073 		mov	r3, #256
 332 004e 174A     		ldr	r2, .L13+20
 333 0050 1268     		ldr	r2, [r2]
 334 0052 1749     		ldr	r1, .L13+24
 335 0054 51F82010 		ldr	r1, [r1, r0, lsl #2]
 336 0058 3046     		mov	r0, r6
 337 005a FFF7FEFF 		bl	HAL_DMA_Start_IT
 338              	.LVL17:
 457:Core/Src/main.c ****         HAL_GPIO_WritePin(GPIOA, GPIO_PIN_5, GPIO_PIN_SET);
 339              		.loc 1 457 9 is_stmt 1 view .LVU77
 340 005e 2A68     		ldr	r2, [r5]
 341 0060 D368     		ldr	r3, [r2, #12]
 342 0062 43F40073 		orr	r3, r3, #512
 343 0066 D360     		str	r3, [r2, #12]
 458:Core/Src/main.c ****         // Update LCD
 344              		.loc 1 458 9 view .LVU78
 345 0068 0122     		movs	r2, #1
 346 006a 2021     		movs	r1, #32
 347 006c 1148     		ldr	r0, .L13+28
 348 006e FFF7FEFF 		bl	HAL_GPIO_WritePin
 349              	.LVL18:
 460:Core/Src/main.c ****         lcd_command(CURSOR_HOME);
 350              		.loc 1 460 9 view .LVU79
 351 0072 0120     		movs	r0, #1
 352 0074 FFF7FEFF 		bl	lcd_command
 353              	.LVL19:
 461:Core/Src/main.c ****         lcd_putstring("Waveform:");
 354              		.loc 1 461 9 view .LVU80
 355 0078 0220     		movs	r0, #2
 356 007a FFF7FEFF 		bl	lcd_command
 357              	.LVL20:
 462:Core/Src/main.c ****         lcd_command(LINE_TWO);
 358              		.loc 1 462 9 view .LVU81
 359 007e 0E48     		ldr	r0, .L13+32
 360 0080 FFF7FEFF 		bl	lcd_putstring
 361              	.LVL21:
 463:Core/Src/main.c ****         lcd_putstring((char*)waveNames[currentWave]);
 362              		.loc 1 463 9 view .LVU82
 363 0084 C020     		movs	r0, #192
 364 0086 FFF7FEFF 		bl	lcd_command
ARM GAS  C:\Users\nhlan\AppData\Local\Temp\ccrObDJv.s 			page 16


 365              	.LVL22:
 464:Core/Src/main.c ****     }
 366              		.loc 1 464 9 view .LVU83
 367 008a 2278     		ldrb	r2, [r4]	@ zero_extendqisi2
 368 008c 0B4B     		ldr	r3, .L13+36
 369 008e 53F82200 		ldr	r0, [r3, r2, lsl #2]
 370 0092 FFF7FEFF 		bl	lcd_putstring
 371              	.LVL23:
 372              		.loc 1 466 1 is_stmt 0 view .LVU84
 373 0096 BEE7     		b	.L9
 374              	.L14:
 375              		.align	2
 376              	.L13:
 377 0098 00000000 		.word	lastDebounceTick
 378 009c 00000000 		.word	htim2
 379 00a0 00000000 		.word	hdma_tim2_ch1
 380 00a4 00000000 		.word	currentWave
 381 00a8 ABAAAA2A 		.word	715827883
 382 00ac 00000000 		.word	DestAddress
 383 00b0 00000000 		.word	waveforms
 384 00b4 00000240 		.word	1073872896
 385 00b8 00000000 		.word	.LC0
 386 00bc 00000000 		.word	waveNames
 387              		.cfi_endproc
 388              	.LFE143:
 390              		.section	.text.Error_Handler,"ax",%progbits
 391              		.align	1
 392              		.global	Error_Handler
 393              		.syntax unified
 394              		.thumb
 395              		.thumb_func
 397              	Error_Handler:
 398              	.LFB144:
 467:Core/Src/main.c **** /* USER CODE END 4 */
 468:Core/Src/main.c **** 
 469:Core/Src/main.c **** /**
 470:Core/Src/main.c ****   * @brief  This function is executed in case of error occurrence.
 471:Core/Src/main.c ****   * @retval None
 472:Core/Src/main.c ****   */
 473:Core/Src/main.c **** void Error_Handler(void)
 474:Core/Src/main.c **** {
 399              		.loc 1 474 1 is_stmt 1 view -0
 400              		.cfi_startproc
 401              		@ Volatile: function does not return.
 402              		@ args = 0, pretend = 0, frame = 0
 403              		@ frame_needed = 0, uses_anonymous_args = 0
 404              		@ link register save eliminated.
 475:Core/Src/main.c ****   /* USER CODE BEGIN Error_Handler_Debug */
 476:Core/Src/main.c ****   /* User can add his own implementation to report the HAL error return state */
 477:Core/Src/main.c ****   __disable_irq();
 405              		.loc 1 477 3 view .LVU86
 406              	.LBB8:
 407              	.LBI8:
 408              		.file 2 "Drivers/CMSIS/Include/cmsis_gcc.h"
   1:Drivers/CMSIS/Include/cmsis_gcc.h **** /**************************************************************************//**
   2:Drivers/CMSIS/Include/cmsis_gcc.h ****  * @file     cmsis_gcc.h
   3:Drivers/CMSIS/Include/cmsis_gcc.h ****  * @brief    CMSIS compiler GCC header file
ARM GAS  C:\Users\nhlan\AppData\Local\Temp\ccrObDJv.s 			page 17


   4:Drivers/CMSIS/Include/cmsis_gcc.h ****  * @version  V5.4.1
   5:Drivers/CMSIS/Include/cmsis_gcc.h ****  * @date     27. May 2021
   6:Drivers/CMSIS/Include/cmsis_gcc.h ****  ******************************************************************************/
   7:Drivers/CMSIS/Include/cmsis_gcc.h **** /*
   8:Drivers/CMSIS/Include/cmsis_gcc.h ****  * Copyright (c) 2009-2021 Arm Limited. All rights reserved.
   9:Drivers/CMSIS/Include/cmsis_gcc.h ****  *
  10:Drivers/CMSIS/Include/cmsis_gcc.h ****  * SPDX-License-Identifier: Apache-2.0
  11:Drivers/CMSIS/Include/cmsis_gcc.h ****  *
  12:Drivers/CMSIS/Include/cmsis_gcc.h ****  * Licensed under the Apache License, Version 2.0 (the License); you may
  13:Drivers/CMSIS/Include/cmsis_gcc.h ****  * not use this file except in compliance with the License.
  14:Drivers/CMSIS/Include/cmsis_gcc.h ****  * You may obtain a copy of the License at
  15:Drivers/CMSIS/Include/cmsis_gcc.h ****  *
  16:Drivers/CMSIS/Include/cmsis_gcc.h ****  * www.apache.org/licenses/LICENSE-2.0
  17:Drivers/CMSIS/Include/cmsis_gcc.h ****  *
  18:Drivers/CMSIS/Include/cmsis_gcc.h ****  * Unless required by applicable law or agreed to in writing, software
  19:Drivers/CMSIS/Include/cmsis_gcc.h ****  * distributed under the License is distributed on an AS IS BASIS, WITHOUT
  20:Drivers/CMSIS/Include/cmsis_gcc.h ****  * WARRANTIES OR CONDITIONS OF ANY KIND, either express or implied.
  21:Drivers/CMSIS/Include/cmsis_gcc.h ****  * See the License for the specific language governing permissions and
  22:Drivers/CMSIS/Include/cmsis_gcc.h ****  * limitations under the License.
  23:Drivers/CMSIS/Include/cmsis_gcc.h ****  */
  24:Drivers/CMSIS/Include/cmsis_gcc.h **** 
  25:Drivers/CMSIS/Include/cmsis_gcc.h **** #ifndef __CMSIS_GCC_H
  26:Drivers/CMSIS/Include/cmsis_gcc.h **** #define __CMSIS_GCC_H
  27:Drivers/CMSIS/Include/cmsis_gcc.h **** 
  28:Drivers/CMSIS/Include/cmsis_gcc.h **** /* ignore some GCC warnings */
  29:Drivers/CMSIS/Include/cmsis_gcc.h **** #pragma GCC diagnostic push
  30:Drivers/CMSIS/Include/cmsis_gcc.h **** #pragma GCC diagnostic ignored "-Wsign-conversion"
  31:Drivers/CMSIS/Include/cmsis_gcc.h **** #pragma GCC diagnostic ignored "-Wconversion"
  32:Drivers/CMSIS/Include/cmsis_gcc.h **** #pragma GCC diagnostic ignored "-Wunused-parameter"
  33:Drivers/CMSIS/Include/cmsis_gcc.h **** 
  34:Drivers/CMSIS/Include/cmsis_gcc.h **** /* Fallback for __has_builtin */
  35:Drivers/CMSIS/Include/cmsis_gcc.h **** #ifndef __has_builtin
  36:Drivers/CMSIS/Include/cmsis_gcc.h ****   #define __has_builtin(x) (0)
  37:Drivers/CMSIS/Include/cmsis_gcc.h **** #endif
  38:Drivers/CMSIS/Include/cmsis_gcc.h **** 
  39:Drivers/CMSIS/Include/cmsis_gcc.h **** /* CMSIS compiler specific defines */
  40:Drivers/CMSIS/Include/cmsis_gcc.h **** #ifndef   __ASM
  41:Drivers/CMSIS/Include/cmsis_gcc.h ****   #define __ASM                                  __asm
  42:Drivers/CMSIS/Include/cmsis_gcc.h **** #endif
  43:Drivers/CMSIS/Include/cmsis_gcc.h **** #ifndef   __INLINE
  44:Drivers/CMSIS/Include/cmsis_gcc.h ****   #define __INLINE                               inline
  45:Drivers/CMSIS/Include/cmsis_gcc.h **** #endif
  46:Drivers/CMSIS/Include/cmsis_gcc.h **** #ifndef   __STATIC_INLINE
  47:Drivers/CMSIS/Include/cmsis_gcc.h ****   #define __STATIC_INLINE                        static inline
  48:Drivers/CMSIS/Include/cmsis_gcc.h **** #endif
  49:Drivers/CMSIS/Include/cmsis_gcc.h **** #ifndef   __STATIC_FORCEINLINE
  50:Drivers/CMSIS/Include/cmsis_gcc.h ****   #define __STATIC_FORCEINLINE                   __attribute__((always_inline)) static inline
  51:Drivers/CMSIS/Include/cmsis_gcc.h **** #endif
  52:Drivers/CMSIS/Include/cmsis_gcc.h **** #ifndef   __NO_RETURN
  53:Drivers/CMSIS/Include/cmsis_gcc.h ****   #define __NO_RETURN                            __attribute__((__noreturn__))
  54:Drivers/CMSIS/Include/cmsis_gcc.h **** #endif
  55:Drivers/CMSIS/Include/cmsis_gcc.h **** #ifndef   __USED
  56:Drivers/CMSIS/Include/cmsis_gcc.h ****   #define __USED                                 __attribute__((used))
  57:Drivers/CMSIS/Include/cmsis_gcc.h **** #endif
  58:Drivers/CMSIS/Include/cmsis_gcc.h **** #ifndef   __WEAK
  59:Drivers/CMSIS/Include/cmsis_gcc.h ****   #define __WEAK                                 __attribute__((weak))
  60:Drivers/CMSIS/Include/cmsis_gcc.h **** #endif
ARM GAS  C:\Users\nhlan\AppData\Local\Temp\ccrObDJv.s 			page 18


  61:Drivers/CMSIS/Include/cmsis_gcc.h **** #ifndef   __PACKED
  62:Drivers/CMSIS/Include/cmsis_gcc.h ****   #define __PACKED                               __attribute__((packed, aligned(1)))
  63:Drivers/CMSIS/Include/cmsis_gcc.h **** #endif
  64:Drivers/CMSIS/Include/cmsis_gcc.h **** #ifndef   __PACKED_STRUCT
  65:Drivers/CMSIS/Include/cmsis_gcc.h ****   #define __PACKED_STRUCT                        struct __attribute__((packed, aligned(1)))
  66:Drivers/CMSIS/Include/cmsis_gcc.h **** #endif
  67:Drivers/CMSIS/Include/cmsis_gcc.h **** #ifndef   __PACKED_UNION
  68:Drivers/CMSIS/Include/cmsis_gcc.h ****   #define __PACKED_UNION                         union __attribute__((packed, aligned(1)))
  69:Drivers/CMSIS/Include/cmsis_gcc.h **** #endif
  70:Drivers/CMSIS/Include/cmsis_gcc.h **** #ifndef   __UNALIGNED_UINT32        /* deprecated */
  71:Drivers/CMSIS/Include/cmsis_gcc.h ****   #pragma GCC diagnostic push
  72:Drivers/CMSIS/Include/cmsis_gcc.h ****   #pragma GCC diagnostic ignored "-Wpacked"
  73:Drivers/CMSIS/Include/cmsis_gcc.h ****   #pragma GCC diagnostic ignored "-Wattributes"
  74:Drivers/CMSIS/Include/cmsis_gcc.h ****   struct __attribute__((packed)) T_UINT32 { uint32_t v; };
  75:Drivers/CMSIS/Include/cmsis_gcc.h ****   #pragma GCC diagnostic pop
  76:Drivers/CMSIS/Include/cmsis_gcc.h ****   #define __UNALIGNED_UINT32(x)                  (((struct T_UINT32 *)(x))->v)
  77:Drivers/CMSIS/Include/cmsis_gcc.h **** #endif
  78:Drivers/CMSIS/Include/cmsis_gcc.h **** #ifndef   __UNALIGNED_UINT16_WRITE
  79:Drivers/CMSIS/Include/cmsis_gcc.h ****   #pragma GCC diagnostic push
  80:Drivers/CMSIS/Include/cmsis_gcc.h ****   #pragma GCC diagnostic ignored "-Wpacked"
  81:Drivers/CMSIS/Include/cmsis_gcc.h ****   #pragma GCC diagnostic ignored "-Wattributes"
  82:Drivers/CMSIS/Include/cmsis_gcc.h ****   __PACKED_STRUCT T_UINT16_WRITE { uint16_t v; };
  83:Drivers/CMSIS/Include/cmsis_gcc.h ****   #pragma GCC diagnostic pop
  84:Drivers/CMSIS/Include/cmsis_gcc.h ****   #define __UNALIGNED_UINT16_WRITE(addr, val)    (void)((((struct T_UINT16_WRITE *)(void *)(addr))-
  85:Drivers/CMSIS/Include/cmsis_gcc.h **** #endif
  86:Drivers/CMSIS/Include/cmsis_gcc.h **** #ifndef   __UNALIGNED_UINT16_READ
  87:Drivers/CMSIS/Include/cmsis_gcc.h ****   #pragma GCC diagnostic push
  88:Drivers/CMSIS/Include/cmsis_gcc.h ****   #pragma GCC diagnostic ignored "-Wpacked"
  89:Drivers/CMSIS/Include/cmsis_gcc.h ****   #pragma GCC diagnostic ignored "-Wattributes"
  90:Drivers/CMSIS/Include/cmsis_gcc.h ****   __PACKED_STRUCT T_UINT16_READ { uint16_t v; };
  91:Drivers/CMSIS/Include/cmsis_gcc.h ****   #pragma GCC diagnostic pop
  92:Drivers/CMSIS/Include/cmsis_gcc.h ****   #define __UNALIGNED_UINT16_READ(addr)          (((const struct T_UINT16_READ *)(const void *)(add
  93:Drivers/CMSIS/Include/cmsis_gcc.h **** #endif
  94:Drivers/CMSIS/Include/cmsis_gcc.h **** #ifndef   __UNALIGNED_UINT32_WRITE
  95:Drivers/CMSIS/Include/cmsis_gcc.h ****   #pragma GCC diagnostic push
  96:Drivers/CMSIS/Include/cmsis_gcc.h ****   #pragma GCC diagnostic ignored "-Wpacked"
  97:Drivers/CMSIS/Include/cmsis_gcc.h ****   #pragma GCC diagnostic ignored "-Wattributes"
  98:Drivers/CMSIS/Include/cmsis_gcc.h ****   __PACKED_STRUCT T_UINT32_WRITE { uint32_t v; };
  99:Drivers/CMSIS/Include/cmsis_gcc.h ****   #pragma GCC diagnostic pop
 100:Drivers/CMSIS/Include/cmsis_gcc.h ****   #define __UNALIGNED_UINT32_WRITE(addr, val)    (void)((((struct T_UINT32_WRITE *)(void *)(addr))-
 101:Drivers/CMSIS/Include/cmsis_gcc.h **** #endif
 102:Drivers/CMSIS/Include/cmsis_gcc.h **** #ifndef   __UNALIGNED_UINT32_READ
 103:Drivers/CMSIS/Include/cmsis_gcc.h ****   #pragma GCC diagnostic push
 104:Drivers/CMSIS/Include/cmsis_gcc.h ****   #pragma GCC diagnostic ignored "-Wpacked"
 105:Drivers/CMSIS/Include/cmsis_gcc.h ****   #pragma GCC diagnostic ignored "-Wattributes"
 106:Drivers/CMSIS/Include/cmsis_gcc.h ****   __PACKED_STRUCT T_UINT32_READ { uint32_t v; };
 107:Drivers/CMSIS/Include/cmsis_gcc.h ****   #pragma GCC diagnostic pop
 108:Drivers/CMSIS/Include/cmsis_gcc.h ****   #define __UNALIGNED_UINT32_READ(addr)          (((const struct T_UINT32_READ *)(const void *)(add
 109:Drivers/CMSIS/Include/cmsis_gcc.h **** #endif
 110:Drivers/CMSIS/Include/cmsis_gcc.h **** #ifndef   __ALIGNED
 111:Drivers/CMSIS/Include/cmsis_gcc.h ****   #define __ALIGNED(x)                           __attribute__((aligned(x)))
 112:Drivers/CMSIS/Include/cmsis_gcc.h **** #endif
 113:Drivers/CMSIS/Include/cmsis_gcc.h **** #ifndef   __RESTRICT
 114:Drivers/CMSIS/Include/cmsis_gcc.h ****   #define __RESTRICT                             __restrict
 115:Drivers/CMSIS/Include/cmsis_gcc.h **** #endif
 116:Drivers/CMSIS/Include/cmsis_gcc.h **** #ifndef   __COMPILER_BARRIER
 117:Drivers/CMSIS/Include/cmsis_gcc.h ****   #define __COMPILER_BARRIER()                   __ASM volatile("":::"memory")
ARM GAS  C:\Users\nhlan\AppData\Local\Temp\ccrObDJv.s 			page 19


 118:Drivers/CMSIS/Include/cmsis_gcc.h **** #endif
 119:Drivers/CMSIS/Include/cmsis_gcc.h **** 
 120:Drivers/CMSIS/Include/cmsis_gcc.h **** /* #########################  Startup and Lowlevel Init  ######################## */
 121:Drivers/CMSIS/Include/cmsis_gcc.h **** 
 122:Drivers/CMSIS/Include/cmsis_gcc.h **** #ifndef __PROGRAM_START
 123:Drivers/CMSIS/Include/cmsis_gcc.h **** 
 124:Drivers/CMSIS/Include/cmsis_gcc.h **** /**
 125:Drivers/CMSIS/Include/cmsis_gcc.h ****   \brief   Initializes data and bss sections
 126:Drivers/CMSIS/Include/cmsis_gcc.h ****   \details This default implementations initialized all data and additional bss
 127:Drivers/CMSIS/Include/cmsis_gcc.h ****            sections relying on .copy.table and .zero.table specified properly
 128:Drivers/CMSIS/Include/cmsis_gcc.h ****            in the used linker script.
 129:Drivers/CMSIS/Include/cmsis_gcc.h **** 
 130:Drivers/CMSIS/Include/cmsis_gcc.h ****  */
 131:Drivers/CMSIS/Include/cmsis_gcc.h **** __STATIC_FORCEINLINE __NO_RETURN void __cmsis_start(void)
 132:Drivers/CMSIS/Include/cmsis_gcc.h **** {
 133:Drivers/CMSIS/Include/cmsis_gcc.h ****   extern void _start(void) __NO_RETURN;
 134:Drivers/CMSIS/Include/cmsis_gcc.h **** 
 135:Drivers/CMSIS/Include/cmsis_gcc.h ****   typedef struct {
 136:Drivers/CMSIS/Include/cmsis_gcc.h ****     uint32_t const* src;
 137:Drivers/CMSIS/Include/cmsis_gcc.h ****     uint32_t* dest;
 138:Drivers/CMSIS/Include/cmsis_gcc.h ****     uint32_t  wlen;
 139:Drivers/CMSIS/Include/cmsis_gcc.h ****   } __copy_table_t;
 140:Drivers/CMSIS/Include/cmsis_gcc.h **** 
 141:Drivers/CMSIS/Include/cmsis_gcc.h ****   typedef struct {
 142:Drivers/CMSIS/Include/cmsis_gcc.h ****     uint32_t* dest;
 143:Drivers/CMSIS/Include/cmsis_gcc.h ****     uint32_t  wlen;
 144:Drivers/CMSIS/Include/cmsis_gcc.h ****   } __zero_table_t;
 145:Drivers/CMSIS/Include/cmsis_gcc.h **** 
 146:Drivers/CMSIS/Include/cmsis_gcc.h ****   extern const __copy_table_t __copy_table_start__;
 147:Drivers/CMSIS/Include/cmsis_gcc.h ****   extern const __copy_table_t __copy_table_end__;
 148:Drivers/CMSIS/Include/cmsis_gcc.h ****   extern const __zero_table_t __zero_table_start__;
 149:Drivers/CMSIS/Include/cmsis_gcc.h ****   extern const __zero_table_t __zero_table_end__;
 150:Drivers/CMSIS/Include/cmsis_gcc.h **** 
 151:Drivers/CMSIS/Include/cmsis_gcc.h ****   for (__copy_table_t const* pTable = &__copy_table_start__; pTable < &__copy_table_end__; ++pTable
 152:Drivers/CMSIS/Include/cmsis_gcc.h ****     for(uint32_t i=0u; i<pTable->wlen; ++i) {
 153:Drivers/CMSIS/Include/cmsis_gcc.h ****       pTable->dest[i] = pTable->src[i];
 154:Drivers/CMSIS/Include/cmsis_gcc.h ****     }
 155:Drivers/CMSIS/Include/cmsis_gcc.h ****   }
 156:Drivers/CMSIS/Include/cmsis_gcc.h **** 
 157:Drivers/CMSIS/Include/cmsis_gcc.h ****   for (__zero_table_t const* pTable = &__zero_table_start__; pTable < &__zero_table_end__; ++pTable
 158:Drivers/CMSIS/Include/cmsis_gcc.h ****     for(uint32_t i=0u; i<pTable->wlen; ++i) {
 159:Drivers/CMSIS/Include/cmsis_gcc.h ****       pTable->dest[i] = 0u;
 160:Drivers/CMSIS/Include/cmsis_gcc.h ****     }
 161:Drivers/CMSIS/Include/cmsis_gcc.h ****   }
 162:Drivers/CMSIS/Include/cmsis_gcc.h **** 
 163:Drivers/CMSIS/Include/cmsis_gcc.h ****   _start();
 164:Drivers/CMSIS/Include/cmsis_gcc.h **** }
 165:Drivers/CMSIS/Include/cmsis_gcc.h **** 
 166:Drivers/CMSIS/Include/cmsis_gcc.h **** #define __PROGRAM_START           __cmsis_start
 167:Drivers/CMSIS/Include/cmsis_gcc.h **** #endif
 168:Drivers/CMSIS/Include/cmsis_gcc.h **** 
 169:Drivers/CMSIS/Include/cmsis_gcc.h **** #ifndef __INITIAL_SP
 170:Drivers/CMSIS/Include/cmsis_gcc.h **** #define __INITIAL_SP              __StackTop
 171:Drivers/CMSIS/Include/cmsis_gcc.h **** #endif
 172:Drivers/CMSIS/Include/cmsis_gcc.h **** 
 173:Drivers/CMSIS/Include/cmsis_gcc.h **** #ifndef __STACK_LIMIT
 174:Drivers/CMSIS/Include/cmsis_gcc.h **** #define __STACK_LIMIT             __StackLimit
ARM GAS  C:\Users\nhlan\AppData\Local\Temp\ccrObDJv.s 			page 20


 175:Drivers/CMSIS/Include/cmsis_gcc.h **** #endif
 176:Drivers/CMSIS/Include/cmsis_gcc.h **** 
 177:Drivers/CMSIS/Include/cmsis_gcc.h **** #ifndef __VECTOR_TABLE
 178:Drivers/CMSIS/Include/cmsis_gcc.h **** #define __VECTOR_TABLE            __Vectors
 179:Drivers/CMSIS/Include/cmsis_gcc.h **** #endif
 180:Drivers/CMSIS/Include/cmsis_gcc.h **** 
 181:Drivers/CMSIS/Include/cmsis_gcc.h **** #ifndef __VECTOR_TABLE_ATTRIBUTE
 182:Drivers/CMSIS/Include/cmsis_gcc.h **** #define __VECTOR_TABLE_ATTRIBUTE  __attribute__((used, section(".vectors")))
 183:Drivers/CMSIS/Include/cmsis_gcc.h **** #endif
 184:Drivers/CMSIS/Include/cmsis_gcc.h **** 
 185:Drivers/CMSIS/Include/cmsis_gcc.h **** #if defined (__ARM_FEATURE_CMSE) && (__ARM_FEATURE_CMSE == 3U)
 186:Drivers/CMSIS/Include/cmsis_gcc.h **** #ifndef __STACK_SEAL
 187:Drivers/CMSIS/Include/cmsis_gcc.h **** #define __STACK_SEAL              __StackSeal
 188:Drivers/CMSIS/Include/cmsis_gcc.h **** #endif
 189:Drivers/CMSIS/Include/cmsis_gcc.h **** 
 190:Drivers/CMSIS/Include/cmsis_gcc.h **** #ifndef __TZ_STACK_SEAL_SIZE
 191:Drivers/CMSIS/Include/cmsis_gcc.h **** #define __TZ_STACK_SEAL_SIZE      8U
 192:Drivers/CMSIS/Include/cmsis_gcc.h **** #endif
 193:Drivers/CMSIS/Include/cmsis_gcc.h **** 
 194:Drivers/CMSIS/Include/cmsis_gcc.h **** #ifndef __TZ_STACK_SEAL_VALUE
 195:Drivers/CMSIS/Include/cmsis_gcc.h **** #define __TZ_STACK_SEAL_VALUE     0xFEF5EDA5FEF5EDA5ULL
 196:Drivers/CMSIS/Include/cmsis_gcc.h **** #endif
 197:Drivers/CMSIS/Include/cmsis_gcc.h **** 
 198:Drivers/CMSIS/Include/cmsis_gcc.h **** 
 199:Drivers/CMSIS/Include/cmsis_gcc.h **** __STATIC_FORCEINLINE void __TZ_set_STACKSEAL_S (uint32_t* stackTop) {
 200:Drivers/CMSIS/Include/cmsis_gcc.h ****   *((uint64_t *)stackTop) = __TZ_STACK_SEAL_VALUE;
 201:Drivers/CMSIS/Include/cmsis_gcc.h **** }
 202:Drivers/CMSIS/Include/cmsis_gcc.h **** #endif
 203:Drivers/CMSIS/Include/cmsis_gcc.h **** 
 204:Drivers/CMSIS/Include/cmsis_gcc.h **** 
 205:Drivers/CMSIS/Include/cmsis_gcc.h **** /* ##########################  Core Instruction Access  ######################### */
 206:Drivers/CMSIS/Include/cmsis_gcc.h **** /** \defgroup CMSIS_Core_InstructionInterface CMSIS Core Instruction Interface
 207:Drivers/CMSIS/Include/cmsis_gcc.h ****   Access to dedicated instructions
 208:Drivers/CMSIS/Include/cmsis_gcc.h ****   @{
 209:Drivers/CMSIS/Include/cmsis_gcc.h **** */
 210:Drivers/CMSIS/Include/cmsis_gcc.h **** 
 211:Drivers/CMSIS/Include/cmsis_gcc.h **** /* Define macros for porting to both thumb1 and thumb2.
 212:Drivers/CMSIS/Include/cmsis_gcc.h ****  * For thumb1, use low register (r0-r7), specified by constraint "l"
 213:Drivers/CMSIS/Include/cmsis_gcc.h ****  * Otherwise, use general registers, specified by constraint "r" */
 214:Drivers/CMSIS/Include/cmsis_gcc.h **** #if defined (__thumb__) && !defined (__thumb2__)
 215:Drivers/CMSIS/Include/cmsis_gcc.h **** #define __CMSIS_GCC_OUT_REG(r) "=l" (r)
 216:Drivers/CMSIS/Include/cmsis_gcc.h **** #define __CMSIS_GCC_RW_REG(r) "+l" (r)
 217:Drivers/CMSIS/Include/cmsis_gcc.h **** #define __CMSIS_GCC_USE_REG(r) "l" (r)
 218:Drivers/CMSIS/Include/cmsis_gcc.h **** #else
 219:Drivers/CMSIS/Include/cmsis_gcc.h **** #define __CMSIS_GCC_OUT_REG(r) "=r" (r)
 220:Drivers/CMSIS/Include/cmsis_gcc.h **** #define __CMSIS_GCC_RW_REG(r) "+r" (r)
 221:Drivers/CMSIS/Include/cmsis_gcc.h **** #define __CMSIS_GCC_USE_REG(r) "r" (r)
 222:Drivers/CMSIS/Include/cmsis_gcc.h **** #endif
 223:Drivers/CMSIS/Include/cmsis_gcc.h **** 
 224:Drivers/CMSIS/Include/cmsis_gcc.h **** /**
 225:Drivers/CMSIS/Include/cmsis_gcc.h ****   \brief   No Operation
 226:Drivers/CMSIS/Include/cmsis_gcc.h ****   \details No Operation does nothing. This instruction can be used for code alignment purposes.
 227:Drivers/CMSIS/Include/cmsis_gcc.h ****  */
 228:Drivers/CMSIS/Include/cmsis_gcc.h **** #define __NOP()                             __ASM volatile ("nop")
 229:Drivers/CMSIS/Include/cmsis_gcc.h **** 
 230:Drivers/CMSIS/Include/cmsis_gcc.h **** /**
 231:Drivers/CMSIS/Include/cmsis_gcc.h ****   \brief   Wait For Interrupt
ARM GAS  C:\Users\nhlan\AppData\Local\Temp\ccrObDJv.s 			page 21


 232:Drivers/CMSIS/Include/cmsis_gcc.h ****   \details Wait For Interrupt is a hint instruction that suspends execution until one of a number o
 233:Drivers/CMSIS/Include/cmsis_gcc.h ****  */
 234:Drivers/CMSIS/Include/cmsis_gcc.h **** #define __WFI()                             __ASM volatile ("wfi":::"memory")
 235:Drivers/CMSIS/Include/cmsis_gcc.h **** 
 236:Drivers/CMSIS/Include/cmsis_gcc.h **** 
 237:Drivers/CMSIS/Include/cmsis_gcc.h **** /**
 238:Drivers/CMSIS/Include/cmsis_gcc.h ****   \brief   Wait For Event
 239:Drivers/CMSIS/Include/cmsis_gcc.h ****   \details Wait For Event is a hint instruction that permits the processor to enter
 240:Drivers/CMSIS/Include/cmsis_gcc.h ****            a low-power state until one of a number of events occurs.
 241:Drivers/CMSIS/Include/cmsis_gcc.h ****  */
 242:Drivers/CMSIS/Include/cmsis_gcc.h **** #define __WFE()                             __ASM volatile ("wfe":::"memory")
 243:Drivers/CMSIS/Include/cmsis_gcc.h **** 
 244:Drivers/CMSIS/Include/cmsis_gcc.h **** 
 245:Drivers/CMSIS/Include/cmsis_gcc.h **** /**
 246:Drivers/CMSIS/Include/cmsis_gcc.h ****   \brief   Send Event
 247:Drivers/CMSIS/Include/cmsis_gcc.h ****   \details Send Event is a hint instruction. It causes an event to be signaled to the CPU.
 248:Drivers/CMSIS/Include/cmsis_gcc.h ****  */
 249:Drivers/CMSIS/Include/cmsis_gcc.h **** #define __SEV()                             __ASM volatile ("sev")
 250:Drivers/CMSIS/Include/cmsis_gcc.h **** 
 251:Drivers/CMSIS/Include/cmsis_gcc.h **** 
 252:Drivers/CMSIS/Include/cmsis_gcc.h **** /**
 253:Drivers/CMSIS/Include/cmsis_gcc.h ****   \brief   Instruction Synchronization Barrier
 254:Drivers/CMSIS/Include/cmsis_gcc.h ****   \details Instruction Synchronization Barrier flushes the pipeline in the processor,
 255:Drivers/CMSIS/Include/cmsis_gcc.h ****            so that all instructions following the ISB are fetched from cache or memory,
 256:Drivers/CMSIS/Include/cmsis_gcc.h ****            after the instruction has been completed.
 257:Drivers/CMSIS/Include/cmsis_gcc.h ****  */
 258:Drivers/CMSIS/Include/cmsis_gcc.h **** __STATIC_FORCEINLINE void __ISB(void)
 259:Drivers/CMSIS/Include/cmsis_gcc.h **** {
 260:Drivers/CMSIS/Include/cmsis_gcc.h ****   __ASM volatile ("isb 0xF":::"memory");
 261:Drivers/CMSIS/Include/cmsis_gcc.h **** }
 262:Drivers/CMSIS/Include/cmsis_gcc.h **** 
 263:Drivers/CMSIS/Include/cmsis_gcc.h **** 
 264:Drivers/CMSIS/Include/cmsis_gcc.h **** /**
 265:Drivers/CMSIS/Include/cmsis_gcc.h ****   \brief   Data Synchronization Barrier
 266:Drivers/CMSIS/Include/cmsis_gcc.h ****   \details Acts as a special kind of Data Memory Barrier.
 267:Drivers/CMSIS/Include/cmsis_gcc.h ****            It completes when all explicit memory accesses before this instruction complete.
 268:Drivers/CMSIS/Include/cmsis_gcc.h ****  */
 269:Drivers/CMSIS/Include/cmsis_gcc.h **** __STATIC_FORCEINLINE void __DSB(void)
 270:Drivers/CMSIS/Include/cmsis_gcc.h **** {
 271:Drivers/CMSIS/Include/cmsis_gcc.h ****   __ASM volatile ("dsb 0xF":::"memory");
 272:Drivers/CMSIS/Include/cmsis_gcc.h **** }
 273:Drivers/CMSIS/Include/cmsis_gcc.h **** 
 274:Drivers/CMSIS/Include/cmsis_gcc.h **** 
 275:Drivers/CMSIS/Include/cmsis_gcc.h **** /**
 276:Drivers/CMSIS/Include/cmsis_gcc.h ****   \brief   Data Memory Barrier
 277:Drivers/CMSIS/Include/cmsis_gcc.h ****   \details Ensures the apparent order of the explicit memory operations before
 278:Drivers/CMSIS/Include/cmsis_gcc.h ****            and after the instruction, without ensuring their completion.
 279:Drivers/CMSIS/Include/cmsis_gcc.h ****  */
 280:Drivers/CMSIS/Include/cmsis_gcc.h **** __STATIC_FORCEINLINE void __DMB(void)
 281:Drivers/CMSIS/Include/cmsis_gcc.h **** {
 282:Drivers/CMSIS/Include/cmsis_gcc.h ****   __ASM volatile ("dmb 0xF":::"memory");
 283:Drivers/CMSIS/Include/cmsis_gcc.h **** }
 284:Drivers/CMSIS/Include/cmsis_gcc.h **** 
 285:Drivers/CMSIS/Include/cmsis_gcc.h **** 
 286:Drivers/CMSIS/Include/cmsis_gcc.h **** /**
 287:Drivers/CMSIS/Include/cmsis_gcc.h ****   \brief   Reverse byte order (32 bit)
 288:Drivers/CMSIS/Include/cmsis_gcc.h ****   \details Reverses the byte order in unsigned integer value. For example, 0x12345678 becomes 0x785
ARM GAS  C:\Users\nhlan\AppData\Local\Temp\ccrObDJv.s 			page 22


 289:Drivers/CMSIS/Include/cmsis_gcc.h ****   \param [in]    value  Value to reverse
 290:Drivers/CMSIS/Include/cmsis_gcc.h ****   \return               Reversed value
 291:Drivers/CMSIS/Include/cmsis_gcc.h ****  */
 292:Drivers/CMSIS/Include/cmsis_gcc.h **** __STATIC_FORCEINLINE uint32_t __REV(uint32_t value)
 293:Drivers/CMSIS/Include/cmsis_gcc.h **** {
 294:Drivers/CMSIS/Include/cmsis_gcc.h **** #if (__GNUC__ > 4) || (__GNUC__ == 4 && __GNUC_MINOR__ >= 5)
 295:Drivers/CMSIS/Include/cmsis_gcc.h ****   return __builtin_bswap32(value);
 296:Drivers/CMSIS/Include/cmsis_gcc.h **** #else
 297:Drivers/CMSIS/Include/cmsis_gcc.h ****   uint32_t result;
 298:Drivers/CMSIS/Include/cmsis_gcc.h **** 
 299:Drivers/CMSIS/Include/cmsis_gcc.h ****   __ASM ("rev %0, %1" : __CMSIS_GCC_OUT_REG (result) : __CMSIS_GCC_USE_REG (value) );
 300:Drivers/CMSIS/Include/cmsis_gcc.h ****   return result;
 301:Drivers/CMSIS/Include/cmsis_gcc.h **** #endif
 302:Drivers/CMSIS/Include/cmsis_gcc.h **** }
 303:Drivers/CMSIS/Include/cmsis_gcc.h **** 
 304:Drivers/CMSIS/Include/cmsis_gcc.h **** 
 305:Drivers/CMSIS/Include/cmsis_gcc.h **** /**
 306:Drivers/CMSIS/Include/cmsis_gcc.h ****   \brief   Reverse byte order (16 bit)
 307:Drivers/CMSIS/Include/cmsis_gcc.h ****   \details Reverses the byte order within each halfword of a word. For example, 0x12345678 becomes 
 308:Drivers/CMSIS/Include/cmsis_gcc.h ****   \param [in]    value  Value to reverse
 309:Drivers/CMSIS/Include/cmsis_gcc.h ****   \return               Reversed value
 310:Drivers/CMSIS/Include/cmsis_gcc.h ****  */
 311:Drivers/CMSIS/Include/cmsis_gcc.h **** __STATIC_FORCEINLINE uint32_t __REV16(uint32_t value)
 312:Drivers/CMSIS/Include/cmsis_gcc.h **** {
 313:Drivers/CMSIS/Include/cmsis_gcc.h ****   uint32_t result;
 314:Drivers/CMSIS/Include/cmsis_gcc.h **** 
 315:Drivers/CMSIS/Include/cmsis_gcc.h ****   __ASM ("rev16 %0, %1" : __CMSIS_GCC_OUT_REG (result) : __CMSIS_GCC_USE_REG (value) );
 316:Drivers/CMSIS/Include/cmsis_gcc.h ****   return result;
 317:Drivers/CMSIS/Include/cmsis_gcc.h **** }
 318:Drivers/CMSIS/Include/cmsis_gcc.h **** 
 319:Drivers/CMSIS/Include/cmsis_gcc.h **** 
 320:Drivers/CMSIS/Include/cmsis_gcc.h **** /**
 321:Drivers/CMSIS/Include/cmsis_gcc.h ****   \brief   Reverse byte order (16 bit)
 322:Drivers/CMSIS/Include/cmsis_gcc.h ****   \details Reverses the byte order in a 16-bit value and returns the signed 16-bit result. For exam
 323:Drivers/CMSIS/Include/cmsis_gcc.h ****   \param [in]    value  Value to reverse
 324:Drivers/CMSIS/Include/cmsis_gcc.h ****   \return               Reversed value
 325:Drivers/CMSIS/Include/cmsis_gcc.h ****  */
 326:Drivers/CMSIS/Include/cmsis_gcc.h **** __STATIC_FORCEINLINE int16_t __REVSH(int16_t value)
 327:Drivers/CMSIS/Include/cmsis_gcc.h **** {
 328:Drivers/CMSIS/Include/cmsis_gcc.h **** #if (__GNUC__ > 4) || (__GNUC__ == 4 && __GNUC_MINOR__ >= 8)
 329:Drivers/CMSIS/Include/cmsis_gcc.h ****   return (int16_t)__builtin_bswap16(value);
 330:Drivers/CMSIS/Include/cmsis_gcc.h **** #else
 331:Drivers/CMSIS/Include/cmsis_gcc.h ****   int16_t result;
 332:Drivers/CMSIS/Include/cmsis_gcc.h **** 
 333:Drivers/CMSIS/Include/cmsis_gcc.h ****   __ASM ("revsh %0, %1" : __CMSIS_GCC_OUT_REG (result) : __CMSIS_GCC_USE_REG (value) );
 334:Drivers/CMSIS/Include/cmsis_gcc.h ****   return result;
 335:Drivers/CMSIS/Include/cmsis_gcc.h **** #endif
 336:Drivers/CMSIS/Include/cmsis_gcc.h **** }
 337:Drivers/CMSIS/Include/cmsis_gcc.h **** 
 338:Drivers/CMSIS/Include/cmsis_gcc.h **** 
 339:Drivers/CMSIS/Include/cmsis_gcc.h **** /**
 340:Drivers/CMSIS/Include/cmsis_gcc.h ****   \brief   Rotate Right in unsigned value (32 bit)
 341:Drivers/CMSIS/Include/cmsis_gcc.h ****   \details Rotate Right (immediate) provides the value of the contents of a register rotated by a v
 342:Drivers/CMSIS/Include/cmsis_gcc.h ****   \param [in]    op1  Value to rotate
 343:Drivers/CMSIS/Include/cmsis_gcc.h ****   \param [in]    op2  Number of Bits to rotate
 344:Drivers/CMSIS/Include/cmsis_gcc.h ****   \return               Rotated value
 345:Drivers/CMSIS/Include/cmsis_gcc.h ****  */
ARM GAS  C:\Users\nhlan\AppData\Local\Temp\ccrObDJv.s 			page 23


 346:Drivers/CMSIS/Include/cmsis_gcc.h **** __STATIC_FORCEINLINE uint32_t __ROR(uint32_t op1, uint32_t op2)
 347:Drivers/CMSIS/Include/cmsis_gcc.h **** {
 348:Drivers/CMSIS/Include/cmsis_gcc.h ****   op2 %= 32U;
 349:Drivers/CMSIS/Include/cmsis_gcc.h ****   if (op2 == 0U)
 350:Drivers/CMSIS/Include/cmsis_gcc.h ****   {
 351:Drivers/CMSIS/Include/cmsis_gcc.h ****     return op1;
 352:Drivers/CMSIS/Include/cmsis_gcc.h ****   }
 353:Drivers/CMSIS/Include/cmsis_gcc.h ****   return (op1 >> op2) | (op1 << (32U - op2));
 354:Drivers/CMSIS/Include/cmsis_gcc.h **** }
 355:Drivers/CMSIS/Include/cmsis_gcc.h **** 
 356:Drivers/CMSIS/Include/cmsis_gcc.h **** 
 357:Drivers/CMSIS/Include/cmsis_gcc.h **** /**
 358:Drivers/CMSIS/Include/cmsis_gcc.h ****   \brief   Breakpoint
 359:Drivers/CMSIS/Include/cmsis_gcc.h ****   \details Causes the processor to enter Debug state.
 360:Drivers/CMSIS/Include/cmsis_gcc.h ****            Debug tools can use this to investigate system state when the instruction at a particula
 361:Drivers/CMSIS/Include/cmsis_gcc.h ****   \param [in]    value  is ignored by the processor.
 362:Drivers/CMSIS/Include/cmsis_gcc.h ****                  If required, a debugger can use it to store additional information about the break
 363:Drivers/CMSIS/Include/cmsis_gcc.h ****  */
 364:Drivers/CMSIS/Include/cmsis_gcc.h **** #define __BKPT(value)                       __ASM volatile ("bkpt "#value)
 365:Drivers/CMSIS/Include/cmsis_gcc.h **** 
 366:Drivers/CMSIS/Include/cmsis_gcc.h **** 
 367:Drivers/CMSIS/Include/cmsis_gcc.h **** /**
 368:Drivers/CMSIS/Include/cmsis_gcc.h ****   \brief   Reverse bit order of value
 369:Drivers/CMSIS/Include/cmsis_gcc.h ****   \details Reverses the bit order of the given value.
 370:Drivers/CMSIS/Include/cmsis_gcc.h ****   \param [in]    value  Value to reverse
 371:Drivers/CMSIS/Include/cmsis_gcc.h ****   \return               Reversed value
 372:Drivers/CMSIS/Include/cmsis_gcc.h ****  */
 373:Drivers/CMSIS/Include/cmsis_gcc.h **** __STATIC_FORCEINLINE uint32_t __RBIT(uint32_t value)
 374:Drivers/CMSIS/Include/cmsis_gcc.h **** {
 375:Drivers/CMSIS/Include/cmsis_gcc.h ****   uint32_t result;
 376:Drivers/CMSIS/Include/cmsis_gcc.h **** 
 377:Drivers/CMSIS/Include/cmsis_gcc.h **** #if ((defined (__ARM_ARCH_7M__      ) && (__ARM_ARCH_7M__      == 1)) || \
 378:Drivers/CMSIS/Include/cmsis_gcc.h ****      (defined (__ARM_ARCH_7EM__     ) && (__ARM_ARCH_7EM__     == 1)) || \
 379:Drivers/CMSIS/Include/cmsis_gcc.h ****      (defined (__ARM_ARCH_8M_MAIN__ ) && (__ARM_ARCH_8M_MAIN__ == 1))    )
 380:Drivers/CMSIS/Include/cmsis_gcc.h ****    __ASM ("rbit %0, %1" : "=r" (result) : "r" (value) );
 381:Drivers/CMSIS/Include/cmsis_gcc.h **** #else
 382:Drivers/CMSIS/Include/cmsis_gcc.h ****   uint32_t s = (4U /*sizeof(v)*/ * 8U) - 1U; /* extra shift needed at end */
 383:Drivers/CMSIS/Include/cmsis_gcc.h **** 
 384:Drivers/CMSIS/Include/cmsis_gcc.h ****   result = value;                      /* r will be reversed bits of v; first get LSB of v */
 385:Drivers/CMSIS/Include/cmsis_gcc.h ****   for (value >>= 1U; value != 0U; value >>= 1U)
 386:Drivers/CMSIS/Include/cmsis_gcc.h ****   {
 387:Drivers/CMSIS/Include/cmsis_gcc.h ****     result <<= 1U;
 388:Drivers/CMSIS/Include/cmsis_gcc.h ****     result |= value & 1U;
 389:Drivers/CMSIS/Include/cmsis_gcc.h ****     s--;
 390:Drivers/CMSIS/Include/cmsis_gcc.h ****   }
 391:Drivers/CMSIS/Include/cmsis_gcc.h ****   result <<= s;                        /* shift when v's highest bits are zero */
 392:Drivers/CMSIS/Include/cmsis_gcc.h **** #endif
 393:Drivers/CMSIS/Include/cmsis_gcc.h ****   return result;
 394:Drivers/CMSIS/Include/cmsis_gcc.h **** }
 395:Drivers/CMSIS/Include/cmsis_gcc.h **** 
 396:Drivers/CMSIS/Include/cmsis_gcc.h **** 
 397:Drivers/CMSIS/Include/cmsis_gcc.h **** /**
 398:Drivers/CMSIS/Include/cmsis_gcc.h ****   \brief   Count leading zeros
 399:Drivers/CMSIS/Include/cmsis_gcc.h ****   \details Counts the number of leading zeros of a data value.
 400:Drivers/CMSIS/Include/cmsis_gcc.h ****   \param [in]  value  Value to count the leading zeros
 401:Drivers/CMSIS/Include/cmsis_gcc.h ****   \return             number of leading zeros in value
 402:Drivers/CMSIS/Include/cmsis_gcc.h ****  */
ARM GAS  C:\Users\nhlan\AppData\Local\Temp\ccrObDJv.s 			page 24


 403:Drivers/CMSIS/Include/cmsis_gcc.h **** __STATIC_FORCEINLINE uint8_t __CLZ(uint32_t value)
 404:Drivers/CMSIS/Include/cmsis_gcc.h **** {
 405:Drivers/CMSIS/Include/cmsis_gcc.h ****   /* Even though __builtin_clz produces a CLZ instruction on ARM, formally
 406:Drivers/CMSIS/Include/cmsis_gcc.h ****      __builtin_clz(0) is undefined behaviour, so handle this case specially.
 407:Drivers/CMSIS/Include/cmsis_gcc.h ****      This guarantees ARM-compatible results if happening to compile on a non-ARM
 408:Drivers/CMSIS/Include/cmsis_gcc.h ****      target, and ensures the compiler doesn't decide to activate any
 409:Drivers/CMSIS/Include/cmsis_gcc.h ****      optimisations using the logic "value was passed to __builtin_clz, so it
 410:Drivers/CMSIS/Include/cmsis_gcc.h ****      is non-zero".
 411:Drivers/CMSIS/Include/cmsis_gcc.h ****      ARM GCC 7.3 and possibly earlier will optimise this test away, leaving a
 412:Drivers/CMSIS/Include/cmsis_gcc.h ****      single CLZ instruction.
 413:Drivers/CMSIS/Include/cmsis_gcc.h ****    */
 414:Drivers/CMSIS/Include/cmsis_gcc.h ****   if (value == 0U)
 415:Drivers/CMSIS/Include/cmsis_gcc.h ****   {
 416:Drivers/CMSIS/Include/cmsis_gcc.h ****     return 32U;
 417:Drivers/CMSIS/Include/cmsis_gcc.h ****   }
 418:Drivers/CMSIS/Include/cmsis_gcc.h ****   return __builtin_clz(value);
 419:Drivers/CMSIS/Include/cmsis_gcc.h **** }
 420:Drivers/CMSIS/Include/cmsis_gcc.h **** 
 421:Drivers/CMSIS/Include/cmsis_gcc.h **** 
 422:Drivers/CMSIS/Include/cmsis_gcc.h **** #if ((defined (__ARM_ARCH_7M__      ) && (__ARM_ARCH_7M__      == 1)) || \
 423:Drivers/CMSIS/Include/cmsis_gcc.h ****      (defined (__ARM_ARCH_7EM__     ) && (__ARM_ARCH_7EM__     == 1)) || \
 424:Drivers/CMSIS/Include/cmsis_gcc.h ****      (defined (__ARM_ARCH_8M_MAIN__ ) && (__ARM_ARCH_8M_MAIN__ == 1)) || \
 425:Drivers/CMSIS/Include/cmsis_gcc.h ****      (defined (__ARM_ARCH_8M_BASE__ ) && (__ARM_ARCH_8M_BASE__ == 1))    )
 426:Drivers/CMSIS/Include/cmsis_gcc.h **** /**
 427:Drivers/CMSIS/Include/cmsis_gcc.h ****   \brief   LDR Exclusive (8 bit)
 428:Drivers/CMSIS/Include/cmsis_gcc.h ****   \details Executes a exclusive LDR instruction for 8 bit value.
 429:Drivers/CMSIS/Include/cmsis_gcc.h ****   \param [in]    ptr  Pointer to data
 430:Drivers/CMSIS/Include/cmsis_gcc.h ****   \return             value of type uint8_t at (*ptr)
 431:Drivers/CMSIS/Include/cmsis_gcc.h ****  */
 432:Drivers/CMSIS/Include/cmsis_gcc.h **** __STATIC_FORCEINLINE uint8_t __LDREXB(volatile uint8_t *addr)
 433:Drivers/CMSIS/Include/cmsis_gcc.h **** {
 434:Drivers/CMSIS/Include/cmsis_gcc.h ****     uint32_t result;
 435:Drivers/CMSIS/Include/cmsis_gcc.h **** 
 436:Drivers/CMSIS/Include/cmsis_gcc.h **** #if (__GNUC__ > 4) || (__GNUC__ == 4 && __GNUC_MINOR__ >= 8)
 437:Drivers/CMSIS/Include/cmsis_gcc.h ****    __ASM volatile ("ldrexb %0, %1" : "=r" (result) : "Q" (*addr) );
 438:Drivers/CMSIS/Include/cmsis_gcc.h **** #else
 439:Drivers/CMSIS/Include/cmsis_gcc.h ****     /* Prior to GCC 4.8, "Q" will be expanded to [rx, #0] which is not
 440:Drivers/CMSIS/Include/cmsis_gcc.h ****        accepted by assembler. So has to use following less efficient pattern.
 441:Drivers/CMSIS/Include/cmsis_gcc.h ****     */
 442:Drivers/CMSIS/Include/cmsis_gcc.h ****    __ASM volatile ("ldrexb %0, [%1]" : "=r" (result) : "r" (addr) : "memory" );
 443:Drivers/CMSIS/Include/cmsis_gcc.h **** #endif
 444:Drivers/CMSIS/Include/cmsis_gcc.h ****    return ((uint8_t) result);    /* Add explicit type cast here */
 445:Drivers/CMSIS/Include/cmsis_gcc.h **** }
 446:Drivers/CMSIS/Include/cmsis_gcc.h **** 
 447:Drivers/CMSIS/Include/cmsis_gcc.h **** 
 448:Drivers/CMSIS/Include/cmsis_gcc.h **** /**
 449:Drivers/CMSIS/Include/cmsis_gcc.h ****   \brief   LDR Exclusive (16 bit)
 450:Drivers/CMSIS/Include/cmsis_gcc.h ****   \details Executes a exclusive LDR instruction for 16 bit values.
 451:Drivers/CMSIS/Include/cmsis_gcc.h ****   \param [in]    ptr  Pointer to data
 452:Drivers/CMSIS/Include/cmsis_gcc.h ****   \return        value of type uint16_t at (*ptr)
 453:Drivers/CMSIS/Include/cmsis_gcc.h ****  */
 454:Drivers/CMSIS/Include/cmsis_gcc.h **** __STATIC_FORCEINLINE uint16_t __LDREXH(volatile uint16_t *addr)
 455:Drivers/CMSIS/Include/cmsis_gcc.h **** {
 456:Drivers/CMSIS/Include/cmsis_gcc.h ****     uint32_t result;
 457:Drivers/CMSIS/Include/cmsis_gcc.h **** 
 458:Drivers/CMSIS/Include/cmsis_gcc.h **** #if (__GNUC__ > 4) || (__GNUC__ == 4 && __GNUC_MINOR__ >= 8)
 459:Drivers/CMSIS/Include/cmsis_gcc.h ****    __ASM volatile ("ldrexh %0, %1" : "=r" (result) : "Q" (*addr) );
ARM GAS  C:\Users\nhlan\AppData\Local\Temp\ccrObDJv.s 			page 25


 460:Drivers/CMSIS/Include/cmsis_gcc.h **** #else
 461:Drivers/CMSIS/Include/cmsis_gcc.h ****     /* Prior to GCC 4.8, "Q" will be expanded to [rx, #0] which is not
 462:Drivers/CMSIS/Include/cmsis_gcc.h ****        accepted by assembler. So has to use following less efficient pattern.
 463:Drivers/CMSIS/Include/cmsis_gcc.h ****     */
 464:Drivers/CMSIS/Include/cmsis_gcc.h ****    __ASM volatile ("ldrexh %0, [%1]" : "=r" (result) : "r" (addr) : "memory" );
 465:Drivers/CMSIS/Include/cmsis_gcc.h **** #endif
 466:Drivers/CMSIS/Include/cmsis_gcc.h ****    return ((uint16_t) result);    /* Add explicit type cast here */
 467:Drivers/CMSIS/Include/cmsis_gcc.h **** }
 468:Drivers/CMSIS/Include/cmsis_gcc.h **** 
 469:Drivers/CMSIS/Include/cmsis_gcc.h **** 
 470:Drivers/CMSIS/Include/cmsis_gcc.h **** /**
 471:Drivers/CMSIS/Include/cmsis_gcc.h ****   \brief   LDR Exclusive (32 bit)
 472:Drivers/CMSIS/Include/cmsis_gcc.h ****   \details Executes a exclusive LDR instruction for 32 bit values.
 473:Drivers/CMSIS/Include/cmsis_gcc.h ****   \param [in]    ptr  Pointer to data
 474:Drivers/CMSIS/Include/cmsis_gcc.h ****   \return        value of type uint32_t at (*ptr)
 475:Drivers/CMSIS/Include/cmsis_gcc.h ****  */
 476:Drivers/CMSIS/Include/cmsis_gcc.h **** __STATIC_FORCEINLINE uint32_t __LDREXW(volatile uint32_t *addr)
 477:Drivers/CMSIS/Include/cmsis_gcc.h **** {
 478:Drivers/CMSIS/Include/cmsis_gcc.h ****     uint32_t result;
 479:Drivers/CMSIS/Include/cmsis_gcc.h **** 
 480:Drivers/CMSIS/Include/cmsis_gcc.h ****    __ASM volatile ("ldrex %0, %1" : "=r" (result) : "Q" (*addr) );
 481:Drivers/CMSIS/Include/cmsis_gcc.h ****    return(result);
 482:Drivers/CMSIS/Include/cmsis_gcc.h **** }
 483:Drivers/CMSIS/Include/cmsis_gcc.h **** 
 484:Drivers/CMSIS/Include/cmsis_gcc.h **** 
 485:Drivers/CMSIS/Include/cmsis_gcc.h **** /**
 486:Drivers/CMSIS/Include/cmsis_gcc.h ****   \brief   STR Exclusive (8 bit)
 487:Drivers/CMSIS/Include/cmsis_gcc.h ****   \details Executes a exclusive STR instruction for 8 bit values.
 488:Drivers/CMSIS/Include/cmsis_gcc.h ****   \param [in]  value  Value to store
 489:Drivers/CMSIS/Include/cmsis_gcc.h ****   \param [in]    ptr  Pointer to location
 490:Drivers/CMSIS/Include/cmsis_gcc.h ****   \return          0  Function succeeded
 491:Drivers/CMSIS/Include/cmsis_gcc.h ****   \return          1  Function failed
 492:Drivers/CMSIS/Include/cmsis_gcc.h ****  */
 493:Drivers/CMSIS/Include/cmsis_gcc.h **** __STATIC_FORCEINLINE uint32_t __STREXB(uint8_t value, volatile uint8_t *addr)
 494:Drivers/CMSIS/Include/cmsis_gcc.h **** {
 495:Drivers/CMSIS/Include/cmsis_gcc.h ****    uint32_t result;
 496:Drivers/CMSIS/Include/cmsis_gcc.h **** 
 497:Drivers/CMSIS/Include/cmsis_gcc.h ****    __ASM volatile ("strexb %0, %2, %1" : "=&r" (result), "=Q" (*addr) : "r" ((uint32_t)value) );
 498:Drivers/CMSIS/Include/cmsis_gcc.h ****    return(result);
 499:Drivers/CMSIS/Include/cmsis_gcc.h **** }
 500:Drivers/CMSIS/Include/cmsis_gcc.h **** 
 501:Drivers/CMSIS/Include/cmsis_gcc.h **** 
 502:Drivers/CMSIS/Include/cmsis_gcc.h **** /**
 503:Drivers/CMSIS/Include/cmsis_gcc.h ****   \brief   STR Exclusive (16 bit)
 504:Drivers/CMSIS/Include/cmsis_gcc.h ****   \details Executes a exclusive STR instruction for 16 bit values.
 505:Drivers/CMSIS/Include/cmsis_gcc.h ****   \param [in]  value  Value to store
 506:Drivers/CMSIS/Include/cmsis_gcc.h ****   \param [in]    ptr  Pointer to location
 507:Drivers/CMSIS/Include/cmsis_gcc.h ****   \return          0  Function succeeded
 508:Drivers/CMSIS/Include/cmsis_gcc.h ****   \return          1  Function failed
 509:Drivers/CMSIS/Include/cmsis_gcc.h ****  */
 510:Drivers/CMSIS/Include/cmsis_gcc.h **** __STATIC_FORCEINLINE uint32_t __STREXH(uint16_t value, volatile uint16_t *addr)
 511:Drivers/CMSIS/Include/cmsis_gcc.h **** {
 512:Drivers/CMSIS/Include/cmsis_gcc.h ****    uint32_t result;
 513:Drivers/CMSIS/Include/cmsis_gcc.h **** 
 514:Drivers/CMSIS/Include/cmsis_gcc.h ****    __ASM volatile ("strexh %0, %2, %1" : "=&r" (result), "=Q" (*addr) : "r" ((uint32_t)value) );
 515:Drivers/CMSIS/Include/cmsis_gcc.h ****    return(result);
 516:Drivers/CMSIS/Include/cmsis_gcc.h **** }
ARM GAS  C:\Users\nhlan\AppData\Local\Temp\ccrObDJv.s 			page 26


 517:Drivers/CMSIS/Include/cmsis_gcc.h **** 
 518:Drivers/CMSIS/Include/cmsis_gcc.h **** 
 519:Drivers/CMSIS/Include/cmsis_gcc.h **** /**
 520:Drivers/CMSIS/Include/cmsis_gcc.h ****   \brief   STR Exclusive (32 bit)
 521:Drivers/CMSIS/Include/cmsis_gcc.h ****   \details Executes a exclusive STR instruction for 32 bit values.
 522:Drivers/CMSIS/Include/cmsis_gcc.h ****   \param [in]  value  Value to store
 523:Drivers/CMSIS/Include/cmsis_gcc.h ****   \param [in]    ptr  Pointer to location
 524:Drivers/CMSIS/Include/cmsis_gcc.h ****   \return          0  Function succeeded
 525:Drivers/CMSIS/Include/cmsis_gcc.h ****   \return          1  Function failed
 526:Drivers/CMSIS/Include/cmsis_gcc.h ****  */
 527:Drivers/CMSIS/Include/cmsis_gcc.h **** __STATIC_FORCEINLINE uint32_t __STREXW(uint32_t value, volatile uint32_t *addr)
 528:Drivers/CMSIS/Include/cmsis_gcc.h **** {
 529:Drivers/CMSIS/Include/cmsis_gcc.h ****    uint32_t result;
 530:Drivers/CMSIS/Include/cmsis_gcc.h **** 
 531:Drivers/CMSIS/Include/cmsis_gcc.h ****    __ASM volatile ("strex %0, %2, %1" : "=&r" (result), "=Q" (*addr) : "r" (value) );
 532:Drivers/CMSIS/Include/cmsis_gcc.h ****    return(result);
 533:Drivers/CMSIS/Include/cmsis_gcc.h **** }
 534:Drivers/CMSIS/Include/cmsis_gcc.h **** 
 535:Drivers/CMSIS/Include/cmsis_gcc.h **** 
 536:Drivers/CMSIS/Include/cmsis_gcc.h **** /**
 537:Drivers/CMSIS/Include/cmsis_gcc.h ****   \brief   Remove the exclusive lock
 538:Drivers/CMSIS/Include/cmsis_gcc.h ****   \details Removes the exclusive lock which is created by LDREX.
 539:Drivers/CMSIS/Include/cmsis_gcc.h ****  */
 540:Drivers/CMSIS/Include/cmsis_gcc.h **** __STATIC_FORCEINLINE void __CLREX(void)
 541:Drivers/CMSIS/Include/cmsis_gcc.h **** {
 542:Drivers/CMSIS/Include/cmsis_gcc.h ****   __ASM volatile ("clrex" ::: "memory");
 543:Drivers/CMSIS/Include/cmsis_gcc.h **** }
 544:Drivers/CMSIS/Include/cmsis_gcc.h **** 
 545:Drivers/CMSIS/Include/cmsis_gcc.h **** #endif /* ((defined (__ARM_ARCH_7M__      ) && (__ARM_ARCH_7M__      == 1)) || \
 546:Drivers/CMSIS/Include/cmsis_gcc.h ****            (defined (__ARM_ARCH_7EM__     ) && (__ARM_ARCH_7EM__     == 1)) || \
 547:Drivers/CMSIS/Include/cmsis_gcc.h ****            (defined (__ARM_ARCH_8M_MAIN__ ) && (__ARM_ARCH_8M_MAIN__ == 1)) || \
 548:Drivers/CMSIS/Include/cmsis_gcc.h ****            (defined (__ARM_ARCH_8M_BASE__ ) && (__ARM_ARCH_8M_BASE__ == 1))    ) */
 549:Drivers/CMSIS/Include/cmsis_gcc.h **** 
 550:Drivers/CMSIS/Include/cmsis_gcc.h **** 
 551:Drivers/CMSIS/Include/cmsis_gcc.h **** #if ((defined (__ARM_ARCH_7M__      ) && (__ARM_ARCH_7M__      == 1)) || \
 552:Drivers/CMSIS/Include/cmsis_gcc.h ****      (defined (__ARM_ARCH_7EM__     ) && (__ARM_ARCH_7EM__     == 1)) || \
 553:Drivers/CMSIS/Include/cmsis_gcc.h ****      (defined (__ARM_ARCH_8M_MAIN__ ) && (__ARM_ARCH_8M_MAIN__ == 1))    )
 554:Drivers/CMSIS/Include/cmsis_gcc.h **** /**
 555:Drivers/CMSIS/Include/cmsis_gcc.h ****   \brief   Signed Saturate
 556:Drivers/CMSIS/Include/cmsis_gcc.h ****   \details Saturates a signed value.
 557:Drivers/CMSIS/Include/cmsis_gcc.h ****   \param [in]  ARG1  Value to be saturated
 558:Drivers/CMSIS/Include/cmsis_gcc.h ****   \param [in]  ARG2  Bit position to saturate to (1..32)
 559:Drivers/CMSIS/Include/cmsis_gcc.h ****   \return             Saturated value
 560:Drivers/CMSIS/Include/cmsis_gcc.h ****  */
 561:Drivers/CMSIS/Include/cmsis_gcc.h **** #define __SSAT(ARG1, ARG2) \
 562:Drivers/CMSIS/Include/cmsis_gcc.h **** __extension__ \
 563:Drivers/CMSIS/Include/cmsis_gcc.h **** ({                          \
 564:Drivers/CMSIS/Include/cmsis_gcc.h ****   int32_t __RES, __ARG1 = (ARG1); \
 565:Drivers/CMSIS/Include/cmsis_gcc.h ****   __ASM volatile ("ssat %0, %1, %2" : "=r" (__RES) :  "I" (ARG2), "r" (__ARG1) : "cc" ); \
 566:Drivers/CMSIS/Include/cmsis_gcc.h ****   __RES; \
 567:Drivers/CMSIS/Include/cmsis_gcc.h ****  })
 568:Drivers/CMSIS/Include/cmsis_gcc.h **** 
 569:Drivers/CMSIS/Include/cmsis_gcc.h **** 
 570:Drivers/CMSIS/Include/cmsis_gcc.h **** /**
 571:Drivers/CMSIS/Include/cmsis_gcc.h ****   \brief   Unsigned Saturate
 572:Drivers/CMSIS/Include/cmsis_gcc.h ****   \details Saturates an unsigned value.
 573:Drivers/CMSIS/Include/cmsis_gcc.h ****   \param [in]  ARG1  Value to be saturated
ARM GAS  C:\Users\nhlan\AppData\Local\Temp\ccrObDJv.s 			page 27


 574:Drivers/CMSIS/Include/cmsis_gcc.h ****   \param [in]  ARG2  Bit position to saturate to (0..31)
 575:Drivers/CMSIS/Include/cmsis_gcc.h ****   \return             Saturated value
 576:Drivers/CMSIS/Include/cmsis_gcc.h ****  */
 577:Drivers/CMSIS/Include/cmsis_gcc.h **** #define __USAT(ARG1, ARG2) \
 578:Drivers/CMSIS/Include/cmsis_gcc.h **** __extension__ \
 579:Drivers/CMSIS/Include/cmsis_gcc.h **** ({                          \
 580:Drivers/CMSIS/Include/cmsis_gcc.h ****   uint32_t __RES, __ARG1 = (ARG1); \
 581:Drivers/CMSIS/Include/cmsis_gcc.h ****   __ASM volatile ("usat %0, %1, %2" : "=r" (__RES) :  "I" (ARG2), "r" (__ARG1) : "cc" ); \
 582:Drivers/CMSIS/Include/cmsis_gcc.h ****   __RES; \
 583:Drivers/CMSIS/Include/cmsis_gcc.h ****  })
 584:Drivers/CMSIS/Include/cmsis_gcc.h **** 
 585:Drivers/CMSIS/Include/cmsis_gcc.h **** 
 586:Drivers/CMSIS/Include/cmsis_gcc.h **** /**
 587:Drivers/CMSIS/Include/cmsis_gcc.h ****   \brief   Rotate Right with Extend (32 bit)
 588:Drivers/CMSIS/Include/cmsis_gcc.h ****   \details Moves each bit of a bitstring right by one bit.
 589:Drivers/CMSIS/Include/cmsis_gcc.h ****            The carry input is shifted in at the left end of the bitstring.
 590:Drivers/CMSIS/Include/cmsis_gcc.h ****   \param [in]    value  Value to rotate
 591:Drivers/CMSIS/Include/cmsis_gcc.h ****   \return               Rotated value
 592:Drivers/CMSIS/Include/cmsis_gcc.h ****  */
 593:Drivers/CMSIS/Include/cmsis_gcc.h **** __STATIC_FORCEINLINE uint32_t __RRX(uint32_t value)
 594:Drivers/CMSIS/Include/cmsis_gcc.h **** {
 595:Drivers/CMSIS/Include/cmsis_gcc.h ****   uint32_t result;
 596:Drivers/CMSIS/Include/cmsis_gcc.h **** 
 597:Drivers/CMSIS/Include/cmsis_gcc.h ****   __ASM volatile ("rrx %0, %1" : __CMSIS_GCC_OUT_REG (result) : __CMSIS_GCC_USE_REG (value) );
 598:Drivers/CMSIS/Include/cmsis_gcc.h ****   return(result);
 599:Drivers/CMSIS/Include/cmsis_gcc.h **** }
 600:Drivers/CMSIS/Include/cmsis_gcc.h **** 
 601:Drivers/CMSIS/Include/cmsis_gcc.h **** 
 602:Drivers/CMSIS/Include/cmsis_gcc.h **** /**
 603:Drivers/CMSIS/Include/cmsis_gcc.h ****   \brief   LDRT Unprivileged (8 bit)
 604:Drivers/CMSIS/Include/cmsis_gcc.h ****   \details Executes a Unprivileged LDRT instruction for 8 bit value.
 605:Drivers/CMSIS/Include/cmsis_gcc.h ****   \param [in]    ptr  Pointer to data
 606:Drivers/CMSIS/Include/cmsis_gcc.h ****   \return             value of type uint8_t at (*ptr)
 607:Drivers/CMSIS/Include/cmsis_gcc.h ****  */
 608:Drivers/CMSIS/Include/cmsis_gcc.h **** __STATIC_FORCEINLINE uint8_t __LDRBT(volatile uint8_t *ptr)
 609:Drivers/CMSIS/Include/cmsis_gcc.h **** {
 610:Drivers/CMSIS/Include/cmsis_gcc.h ****     uint32_t result;
 611:Drivers/CMSIS/Include/cmsis_gcc.h **** 
 612:Drivers/CMSIS/Include/cmsis_gcc.h **** #if (__GNUC__ > 4) || (__GNUC__ == 4 && __GNUC_MINOR__ >= 8)
 613:Drivers/CMSIS/Include/cmsis_gcc.h ****    __ASM volatile ("ldrbt %0, %1" : "=r" (result) : "Q" (*ptr) );
 614:Drivers/CMSIS/Include/cmsis_gcc.h **** #else
 615:Drivers/CMSIS/Include/cmsis_gcc.h ****     /* Prior to GCC 4.8, "Q" will be expanded to [rx, #0] which is not
 616:Drivers/CMSIS/Include/cmsis_gcc.h ****        accepted by assembler. So has to use following less efficient pattern.
 617:Drivers/CMSIS/Include/cmsis_gcc.h ****     */
 618:Drivers/CMSIS/Include/cmsis_gcc.h ****    __ASM volatile ("ldrbt %0, [%1]" : "=r" (result) : "r" (ptr) : "memory" );
 619:Drivers/CMSIS/Include/cmsis_gcc.h **** #endif
 620:Drivers/CMSIS/Include/cmsis_gcc.h ****    return ((uint8_t) result);    /* Add explicit type cast here */
 621:Drivers/CMSIS/Include/cmsis_gcc.h **** }
 622:Drivers/CMSIS/Include/cmsis_gcc.h **** 
 623:Drivers/CMSIS/Include/cmsis_gcc.h **** 
 624:Drivers/CMSIS/Include/cmsis_gcc.h **** /**
 625:Drivers/CMSIS/Include/cmsis_gcc.h ****   \brief   LDRT Unprivileged (16 bit)
 626:Drivers/CMSIS/Include/cmsis_gcc.h ****   \details Executes a Unprivileged LDRT instruction for 16 bit values.
 627:Drivers/CMSIS/Include/cmsis_gcc.h ****   \param [in]    ptr  Pointer to data
 628:Drivers/CMSIS/Include/cmsis_gcc.h ****   \return        value of type uint16_t at (*ptr)
 629:Drivers/CMSIS/Include/cmsis_gcc.h ****  */
 630:Drivers/CMSIS/Include/cmsis_gcc.h **** __STATIC_FORCEINLINE uint16_t __LDRHT(volatile uint16_t *ptr)
ARM GAS  C:\Users\nhlan\AppData\Local\Temp\ccrObDJv.s 			page 28


 631:Drivers/CMSIS/Include/cmsis_gcc.h **** {
 632:Drivers/CMSIS/Include/cmsis_gcc.h ****     uint32_t result;
 633:Drivers/CMSIS/Include/cmsis_gcc.h **** 
 634:Drivers/CMSIS/Include/cmsis_gcc.h **** #if (__GNUC__ > 4) || (__GNUC__ == 4 && __GNUC_MINOR__ >= 8)
 635:Drivers/CMSIS/Include/cmsis_gcc.h ****    __ASM volatile ("ldrht %0, %1" : "=r" (result) : "Q" (*ptr) );
 636:Drivers/CMSIS/Include/cmsis_gcc.h **** #else
 637:Drivers/CMSIS/Include/cmsis_gcc.h ****     /* Prior to GCC 4.8, "Q" will be expanded to [rx, #0] which is not
 638:Drivers/CMSIS/Include/cmsis_gcc.h ****        accepted by assembler. So has to use following less efficient pattern.
 639:Drivers/CMSIS/Include/cmsis_gcc.h ****     */
 640:Drivers/CMSIS/Include/cmsis_gcc.h ****    __ASM volatile ("ldrht %0, [%1]" : "=r" (result) : "r" (ptr) : "memory" );
 641:Drivers/CMSIS/Include/cmsis_gcc.h **** #endif
 642:Drivers/CMSIS/Include/cmsis_gcc.h ****    return ((uint16_t) result);    /* Add explicit type cast here */
 643:Drivers/CMSIS/Include/cmsis_gcc.h **** }
 644:Drivers/CMSIS/Include/cmsis_gcc.h **** 
 645:Drivers/CMSIS/Include/cmsis_gcc.h **** 
 646:Drivers/CMSIS/Include/cmsis_gcc.h **** /**
 647:Drivers/CMSIS/Include/cmsis_gcc.h ****   \brief   LDRT Unprivileged (32 bit)
 648:Drivers/CMSIS/Include/cmsis_gcc.h ****   \details Executes a Unprivileged LDRT instruction for 32 bit values.
 649:Drivers/CMSIS/Include/cmsis_gcc.h ****   \param [in]    ptr  Pointer to data
 650:Drivers/CMSIS/Include/cmsis_gcc.h ****   \return        value of type uint32_t at (*ptr)
 651:Drivers/CMSIS/Include/cmsis_gcc.h ****  */
 652:Drivers/CMSIS/Include/cmsis_gcc.h **** __STATIC_FORCEINLINE uint32_t __LDRT(volatile uint32_t *ptr)
 653:Drivers/CMSIS/Include/cmsis_gcc.h **** {
 654:Drivers/CMSIS/Include/cmsis_gcc.h ****     uint32_t result;
 655:Drivers/CMSIS/Include/cmsis_gcc.h **** 
 656:Drivers/CMSIS/Include/cmsis_gcc.h ****    __ASM volatile ("ldrt %0, %1" : "=r" (result) : "Q" (*ptr) );
 657:Drivers/CMSIS/Include/cmsis_gcc.h ****    return(result);
 658:Drivers/CMSIS/Include/cmsis_gcc.h **** }
 659:Drivers/CMSIS/Include/cmsis_gcc.h **** 
 660:Drivers/CMSIS/Include/cmsis_gcc.h **** 
 661:Drivers/CMSIS/Include/cmsis_gcc.h **** /**
 662:Drivers/CMSIS/Include/cmsis_gcc.h ****   \brief   STRT Unprivileged (8 bit)
 663:Drivers/CMSIS/Include/cmsis_gcc.h ****   \details Executes a Unprivileged STRT instruction for 8 bit values.
 664:Drivers/CMSIS/Include/cmsis_gcc.h ****   \param [in]  value  Value to store
 665:Drivers/CMSIS/Include/cmsis_gcc.h ****   \param [in]    ptr  Pointer to location
 666:Drivers/CMSIS/Include/cmsis_gcc.h ****  */
 667:Drivers/CMSIS/Include/cmsis_gcc.h **** __STATIC_FORCEINLINE void __STRBT(uint8_t value, volatile uint8_t *ptr)
 668:Drivers/CMSIS/Include/cmsis_gcc.h **** {
 669:Drivers/CMSIS/Include/cmsis_gcc.h ****    __ASM volatile ("strbt %1, %0" : "=Q" (*ptr) : "r" ((uint32_t)value) );
 670:Drivers/CMSIS/Include/cmsis_gcc.h **** }
 671:Drivers/CMSIS/Include/cmsis_gcc.h **** 
 672:Drivers/CMSIS/Include/cmsis_gcc.h **** 
 673:Drivers/CMSIS/Include/cmsis_gcc.h **** /**
 674:Drivers/CMSIS/Include/cmsis_gcc.h ****   \brief   STRT Unprivileged (16 bit)
 675:Drivers/CMSIS/Include/cmsis_gcc.h ****   \details Executes a Unprivileged STRT instruction for 16 bit values.
 676:Drivers/CMSIS/Include/cmsis_gcc.h ****   \param [in]  value  Value to store
 677:Drivers/CMSIS/Include/cmsis_gcc.h ****   \param [in]    ptr  Pointer to location
 678:Drivers/CMSIS/Include/cmsis_gcc.h ****  */
 679:Drivers/CMSIS/Include/cmsis_gcc.h **** __STATIC_FORCEINLINE void __STRHT(uint16_t value, volatile uint16_t *ptr)
 680:Drivers/CMSIS/Include/cmsis_gcc.h **** {
 681:Drivers/CMSIS/Include/cmsis_gcc.h ****    __ASM volatile ("strht %1, %0" : "=Q" (*ptr) : "r" ((uint32_t)value) );
 682:Drivers/CMSIS/Include/cmsis_gcc.h **** }
 683:Drivers/CMSIS/Include/cmsis_gcc.h **** 
 684:Drivers/CMSIS/Include/cmsis_gcc.h **** 
 685:Drivers/CMSIS/Include/cmsis_gcc.h **** /**
 686:Drivers/CMSIS/Include/cmsis_gcc.h ****   \brief   STRT Unprivileged (32 bit)
 687:Drivers/CMSIS/Include/cmsis_gcc.h ****   \details Executes a Unprivileged STRT instruction for 32 bit values.
ARM GAS  C:\Users\nhlan\AppData\Local\Temp\ccrObDJv.s 			page 29


 688:Drivers/CMSIS/Include/cmsis_gcc.h ****   \param [in]  value  Value to store
 689:Drivers/CMSIS/Include/cmsis_gcc.h ****   \param [in]    ptr  Pointer to location
 690:Drivers/CMSIS/Include/cmsis_gcc.h ****  */
 691:Drivers/CMSIS/Include/cmsis_gcc.h **** __STATIC_FORCEINLINE void __STRT(uint32_t value, volatile uint32_t *ptr)
 692:Drivers/CMSIS/Include/cmsis_gcc.h **** {
 693:Drivers/CMSIS/Include/cmsis_gcc.h ****    __ASM volatile ("strt %1, %0" : "=Q" (*ptr) : "r" (value) );
 694:Drivers/CMSIS/Include/cmsis_gcc.h **** }
 695:Drivers/CMSIS/Include/cmsis_gcc.h **** 
 696:Drivers/CMSIS/Include/cmsis_gcc.h **** #else  /* ((defined (__ARM_ARCH_7M__      ) && (__ARM_ARCH_7M__      == 1)) || \
 697:Drivers/CMSIS/Include/cmsis_gcc.h ****            (defined (__ARM_ARCH_7EM__     ) && (__ARM_ARCH_7EM__     == 1)) || \
 698:Drivers/CMSIS/Include/cmsis_gcc.h ****            (defined (__ARM_ARCH_8M_MAIN__ ) && (__ARM_ARCH_8M_MAIN__ == 1))    ) */
 699:Drivers/CMSIS/Include/cmsis_gcc.h **** 
 700:Drivers/CMSIS/Include/cmsis_gcc.h **** /**
 701:Drivers/CMSIS/Include/cmsis_gcc.h ****   \brief   Signed Saturate
 702:Drivers/CMSIS/Include/cmsis_gcc.h ****   \details Saturates a signed value.
 703:Drivers/CMSIS/Include/cmsis_gcc.h ****   \param [in]  value  Value to be saturated
 704:Drivers/CMSIS/Include/cmsis_gcc.h ****   \param [in]    sat  Bit position to saturate to (1..32)
 705:Drivers/CMSIS/Include/cmsis_gcc.h ****   \return             Saturated value
 706:Drivers/CMSIS/Include/cmsis_gcc.h ****  */
 707:Drivers/CMSIS/Include/cmsis_gcc.h **** __STATIC_FORCEINLINE int32_t __SSAT(int32_t val, uint32_t sat)
 708:Drivers/CMSIS/Include/cmsis_gcc.h **** {
 709:Drivers/CMSIS/Include/cmsis_gcc.h ****   if ((sat >= 1U) && (sat <= 32U))
 710:Drivers/CMSIS/Include/cmsis_gcc.h ****   {
 711:Drivers/CMSIS/Include/cmsis_gcc.h ****     const int32_t max = (int32_t)((1U << (sat - 1U)) - 1U);
 712:Drivers/CMSIS/Include/cmsis_gcc.h ****     const int32_t min = -1 - max ;
 713:Drivers/CMSIS/Include/cmsis_gcc.h ****     if (val > max)
 714:Drivers/CMSIS/Include/cmsis_gcc.h ****     {
 715:Drivers/CMSIS/Include/cmsis_gcc.h ****       return max;
 716:Drivers/CMSIS/Include/cmsis_gcc.h ****     }
 717:Drivers/CMSIS/Include/cmsis_gcc.h ****     else if (val < min)
 718:Drivers/CMSIS/Include/cmsis_gcc.h ****     {
 719:Drivers/CMSIS/Include/cmsis_gcc.h ****       return min;
 720:Drivers/CMSIS/Include/cmsis_gcc.h ****     }
 721:Drivers/CMSIS/Include/cmsis_gcc.h ****   }
 722:Drivers/CMSIS/Include/cmsis_gcc.h ****   return val;
 723:Drivers/CMSIS/Include/cmsis_gcc.h **** }
 724:Drivers/CMSIS/Include/cmsis_gcc.h **** 
 725:Drivers/CMSIS/Include/cmsis_gcc.h **** /**
 726:Drivers/CMSIS/Include/cmsis_gcc.h ****   \brief   Unsigned Saturate
 727:Drivers/CMSIS/Include/cmsis_gcc.h ****   \details Saturates an unsigned value.
 728:Drivers/CMSIS/Include/cmsis_gcc.h ****   \param [in]  value  Value to be saturated
 729:Drivers/CMSIS/Include/cmsis_gcc.h ****   \param [in]    sat  Bit position to saturate to (0..31)
 730:Drivers/CMSIS/Include/cmsis_gcc.h ****   \return             Saturated value
 731:Drivers/CMSIS/Include/cmsis_gcc.h ****  */
 732:Drivers/CMSIS/Include/cmsis_gcc.h **** __STATIC_FORCEINLINE uint32_t __USAT(int32_t val, uint32_t sat)
 733:Drivers/CMSIS/Include/cmsis_gcc.h **** {
 734:Drivers/CMSIS/Include/cmsis_gcc.h ****   if (sat <= 31U)
 735:Drivers/CMSIS/Include/cmsis_gcc.h ****   {
 736:Drivers/CMSIS/Include/cmsis_gcc.h ****     const uint32_t max = ((1U << sat) - 1U);
 737:Drivers/CMSIS/Include/cmsis_gcc.h ****     if (val > (int32_t)max)
 738:Drivers/CMSIS/Include/cmsis_gcc.h ****     {
 739:Drivers/CMSIS/Include/cmsis_gcc.h ****       return max;
 740:Drivers/CMSIS/Include/cmsis_gcc.h ****     }
 741:Drivers/CMSIS/Include/cmsis_gcc.h ****     else if (val < 0)
 742:Drivers/CMSIS/Include/cmsis_gcc.h ****     {
 743:Drivers/CMSIS/Include/cmsis_gcc.h ****       return 0U;
 744:Drivers/CMSIS/Include/cmsis_gcc.h ****     }
ARM GAS  C:\Users\nhlan\AppData\Local\Temp\ccrObDJv.s 			page 30


 745:Drivers/CMSIS/Include/cmsis_gcc.h ****   }
 746:Drivers/CMSIS/Include/cmsis_gcc.h ****   return (uint32_t)val;
 747:Drivers/CMSIS/Include/cmsis_gcc.h **** }
 748:Drivers/CMSIS/Include/cmsis_gcc.h **** 
 749:Drivers/CMSIS/Include/cmsis_gcc.h **** #endif /* ((defined (__ARM_ARCH_7M__      ) && (__ARM_ARCH_7M__      == 1)) || \
 750:Drivers/CMSIS/Include/cmsis_gcc.h ****            (defined (__ARM_ARCH_7EM__     ) && (__ARM_ARCH_7EM__     == 1)) || \
 751:Drivers/CMSIS/Include/cmsis_gcc.h ****            (defined (__ARM_ARCH_8M_MAIN__ ) && (__ARM_ARCH_8M_MAIN__ == 1))    ) */
 752:Drivers/CMSIS/Include/cmsis_gcc.h **** 
 753:Drivers/CMSIS/Include/cmsis_gcc.h **** 
 754:Drivers/CMSIS/Include/cmsis_gcc.h **** #if ((defined (__ARM_ARCH_8M_MAIN__ ) && (__ARM_ARCH_8M_MAIN__ == 1)) || \
 755:Drivers/CMSIS/Include/cmsis_gcc.h ****      (defined (__ARM_ARCH_8M_BASE__ ) && (__ARM_ARCH_8M_BASE__ == 1))    )
 756:Drivers/CMSIS/Include/cmsis_gcc.h **** /**
 757:Drivers/CMSIS/Include/cmsis_gcc.h ****   \brief   Load-Acquire (8 bit)
 758:Drivers/CMSIS/Include/cmsis_gcc.h ****   \details Executes a LDAB instruction for 8 bit value.
 759:Drivers/CMSIS/Include/cmsis_gcc.h ****   \param [in]    ptr  Pointer to data
 760:Drivers/CMSIS/Include/cmsis_gcc.h ****   \return             value of type uint8_t at (*ptr)
 761:Drivers/CMSIS/Include/cmsis_gcc.h ****  */
 762:Drivers/CMSIS/Include/cmsis_gcc.h **** __STATIC_FORCEINLINE uint8_t __LDAB(volatile uint8_t *ptr)
 763:Drivers/CMSIS/Include/cmsis_gcc.h **** {
 764:Drivers/CMSIS/Include/cmsis_gcc.h ****     uint32_t result;
 765:Drivers/CMSIS/Include/cmsis_gcc.h **** 
 766:Drivers/CMSIS/Include/cmsis_gcc.h ****    __ASM volatile ("ldab %0, %1" : "=r" (result) : "Q" (*ptr) : "memory" );
 767:Drivers/CMSIS/Include/cmsis_gcc.h ****    return ((uint8_t) result);
 768:Drivers/CMSIS/Include/cmsis_gcc.h **** }
 769:Drivers/CMSIS/Include/cmsis_gcc.h **** 
 770:Drivers/CMSIS/Include/cmsis_gcc.h **** 
 771:Drivers/CMSIS/Include/cmsis_gcc.h **** /**
 772:Drivers/CMSIS/Include/cmsis_gcc.h ****   \brief   Load-Acquire (16 bit)
 773:Drivers/CMSIS/Include/cmsis_gcc.h ****   \details Executes a LDAH instruction for 16 bit values.
 774:Drivers/CMSIS/Include/cmsis_gcc.h ****   \param [in]    ptr  Pointer to data
 775:Drivers/CMSIS/Include/cmsis_gcc.h ****   \return        value of type uint16_t at (*ptr)
 776:Drivers/CMSIS/Include/cmsis_gcc.h ****  */
 777:Drivers/CMSIS/Include/cmsis_gcc.h **** __STATIC_FORCEINLINE uint16_t __LDAH(volatile uint16_t *ptr)
 778:Drivers/CMSIS/Include/cmsis_gcc.h **** {
 779:Drivers/CMSIS/Include/cmsis_gcc.h ****     uint32_t result;
 780:Drivers/CMSIS/Include/cmsis_gcc.h **** 
 781:Drivers/CMSIS/Include/cmsis_gcc.h ****    __ASM volatile ("ldah %0, %1" : "=r" (result) : "Q" (*ptr) : "memory" );
 782:Drivers/CMSIS/Include/cmsis_gcc.h ****    return ((uint16_t) result);
 783:Drivers/CMSIS/Include/cmsis_gcc.h **** }
 784:Drivers/CMSIS/Include/cmsis_gcc.h **** 
 785:Drivers/CMSIS/Include/cmsis_gcc.h **** 
 786:Drivers/CMSIS/Include/cmsis_gcc.h **** /**
 787:Drivers/CMSIS/Include/cmsis_gcc.h ****   \brief   Load-Acquire (32 bit)
 788:Drivers/CMSIS/Include/cmsis_gcc.h ****   \details Executes a LDA instruction for 32 bit values.
 789:Drivers/CMSIS/Include/cmsis_gcc.h ****   \param [in]    ptr  Pointer to data
 790:Drivers/CMSIS/Include/cmsis_gcc.h ****   \return        value of type uint32_t at (*ptr)
 791:Drivers/CMSIS/Include/cmsis_gcc.h ****  */
 792:Drivers/CMSIS/Include/cmsis_gcc.h **** __STATIC_FORCEINLINE uint32_t __LDA(volatile uint32_t *ptr)
 793:Drivers/CMSIS/Include/cmsis_gcc.h **** {
 794:Drivers/CMSIS/Include/cmsis_gcc.h ****     uint32_t result;
 795:Drivers/CMSIS/Include/cmsis_gcc.h **** 
 796:Drivers/CMSIS/Include/cmsis_gcc.h ****    __ASM volatile ("lda %0, %1" : "=r" (result) : "Q" (*ptr) : "memory" );
 797:Drivers/CMSIS/Include/cmsis_gcc.h ****    return(result);
 798:Drivers/CMSIS/Include/cmsis_gcc.h **** }
 799:Drivers/CMSIS/Include/cmsis_gcc.h **** 
 800:Drivers/CMSIS/Include/cmsis_gcc.h **** 
 801:Drivers/CMSIS/Include/cmsis_gcc.h **** /**
ARM GAS  C:\Users\nhlan\AppData\Local\Temp\ccrObDJv.s 			page 31


 802:Drivers/CMSIS/Include/cmsis_gcc.h ****   \brief   Store-Release (8 bit)
 803:Drivers/CMSIS/Include/cmsis_gcc.h ****   \details Executes a STLB instruction for 8 bit values.
 804:Drivers/CMSIS/Include/cmsis_gcc.h ****   \param [in]  value  Value to store
 805:Drivers/CMSIS/Include/cmsis_gcc.h ****   \param [in]    ptr  Pointer to location
 806:Drivers/CMSIS/Include/cmsis_gcc.h ****  */
 807:Drivers/CMSIS/Include/cmsis_gcc.h **** __STATIC_FORCEINLINE void __STLB(uint8_t value, volatile uint8_t *ptr)
 808:Drivers/CMSIS/Include/cmsis_gcc.h **** {
 809:Drivers/CMSIS/Include/cmsis_gcc.h ****    __ASM volatile ("stlb %1, %0" : "=Q" (*ptr) : "r" ((uint32_t)value) : "memory" );
 810:Drivers/CMSIS/Include/cmsis_gcc.h **** }
 811:Drivers/CMSIS/Include/cmsis_gcc.h **** 
 812:Drivers/CMSIS/Include/cmsis_gcc.h **** 
 813:Drivers/CMSIS/Include/cmsis_gcc.h **** /**
 814:Drivers/CMSIS/Include/cmsis_gcc.h ****   \brief   Store-Release (16 bit)
 815:Drivers/CMSIS/Include/cmsis_gcc.h ****   \details Executes a STLH instruction for 16 bit values.
 816:Drivers/CMSIS/Include/cmsis_gcc.h ****   \param [in]  value  Value to store
 817:Drivers/CMSIS/Include/cmsis_gcc.h ****   \param [in]    ptr  Pointer to location
 818:Drivers/CMSIS/Include/cmsis_gcc.h ****  */
 819:Drivers/CMSIS/Include/cmsis_gcc.h **** __STATIC_FORCEINLINE void __STLH(uint16_t value, volatile uint16_t *ptr)
 820:Drivers/CMSIS/Include/cmsis_gcc.h **** {
 821:Drivers/CMSIS/Include/cmsis_gcc.h ****    __ASM volatile ("stlh %1, %0" : "=Q" (*ptr) : "r" ((uint32_t)value) : "memory" );
 822:Drivers/CMSIS/Include/cmsis_gcc.h **** }
 823:Drivers/CMSIS/Include/cmsis_gcc.h **** 
 824:Drivers/CMSIS/Include/cmsis_gcc.h **** 
 825:Drivers/CMSIS/Include/cmsis_gcc.h **** /**
 826:Drivers/CMSIS/Include/cmsis_gcc.h ****   \brief   Store-Release (32 bit)
 827:Drivers/CMSIS/Include/cmsis_gcc.h ****   \details Executes a STL instruction for 32 bit values.
 828:Drivers/CMSIS/Include/cmsis_gcc.h ****   \param [in]  value  Value to store
 829:Drivers/CMSIS/Include/cmsis_gcc.h ****   \param [in]    ptr  Pointer to location
 830:Drivers/CMSIS/Include/cmsis_gcc.h ****  */
 831:Drivers/CMSIS/Include/cmsis_gcc.h **** __STATIC_FORCEINLINE void __STL(uint32_t value, volatile uint32_t *ptr)
 832:Drivers/CMSIS/Include/cmsis_gcc.h **** {
 833:Drivers/CMSIS/Include/cmsis_gcc.h ****    __ASM volatile ("stl %1, %0" : "=Q" (*ptr) : "r" ((uint32_t)value) : "memory" );
 834:Drivers/CMSIS/Include/cmsis_gcc.h **** }
 835:Drivers/CMSIS/Include/cmsis_gcc.h **** 
 836:Drivers/CMSIS/Include/cmsis_gcc.h **** 
 837:Drivers/CMSIS/Include/cmsis_gcc.h **** /**
 838:Drivers/CMSIS/Include/cmsis_gcc.h ****   \brief   Load-Acquire Exclusive (8 bit)
 839:Drivers/CMSIS/Include/cmsis_gcc.h ****   \details Executes a LDAB exclusive instruction for 8 bit value.
 840:Drivers/CMSIS/Include/cmsis_gcc.h ****   \param [in]    ptr  Pointer to data
 841:Drivers/CMSIS/Include/cmsis_gcc.h ****   \return             value of type uint8_t at (*ptr)
 842:Drivers/CMSIS/Include/cmsis_gcc.h ****  */
 843:Drivers/CMSIS/Include/cmsis_gcc.h **** __STATIC_FORCEINLINE uint8_t __LDAEXB(volatile uint8_t *ptr)
 844:Drivers/CMSIS/Include/cmsis_gcc.h **** {
 845:Drivers/CMSIS/Include/cmsis_gcc.h ****     uint32_t result;
 846:Drivers/CMSIS/Include/cmsis_gcc.h **** 
 847:Drivers/CMSIS/Include/cmsis_gcc.h ****    __ASM volatile ("ldaexb %0, %1" : "=r" (result) : "Q" (*ptr) : "memory" );
 848:Drivers/CMSIS/Include/cmsis_gcc.h ****    return ((uint8_t) result);
 849:Drivers/CMSIS/Include/cmsis_gcc.h **** }
 850:Drivers/CMSIS/Include/cmsis_gcc.h **** 
 851:Drivers/CMSIS/Include/cmsis_gcc.h **** 
 852:Drivers/CMSIS/Include/cmsis_gcc.h **** /**
 853:Drivers/CMSIS/Include/cmsis_gcc.h ****   \brief   Load-Acquire Exclusive (16 bit)
 854:Drivers/CMSIS/Include/cmsis_gcc.h ****   \details Executes a LDAH exclusive instruction for 16 bit values.
 855:Drivers/CMSIS/Include/cmsis_gcc.h ****   \param [in]    ptr  Pointer to data
 856:Drivers/CMSIS/Include/cmsis_gcc.h ****   \return        value of type uint16_t at (*ptr)
 857:Drivers/CMSIS/Include/cmsis_gcc.h ****  */
 858:Drivers/CMSIS/Include/cmsis_gcc.h **** __STATIC_FORCEINLINE uint16_t __LDAEXH(volatile uint16_t *ptr)
ARM GAS  C:\Users\nhlan\AppData\Local\Temp\ccrObDJv.s 			page 32


 859:Drivers/CMSIS/Include/cmsis_gcc.h **** {
 860:Drivers/CMSIS/Include/cmsis_gcc.h ****     uint32_t result;
 861:Drivers/CMSIS/Include/cmsis_gcc.h **** 
 862:Drivers/CMSIS/Include/cmsis_gcc.h ****    __ASM volatile ("ldaexh %0, %1" : "=r" (result) : "Q" (*ptr) : "memory" );
 863:Drivers/CMSIS/Include/cmsis_gcc.h ****    return ((uint16_t) result);
 864:Drivers/CMSIS/Include/cmsis_gcc.h **** }
 865:Drivers/CMSIS/Include/cmsis_gcc.h **** 
 866:Drivers/CMSIS/Include/cmsis_gcc.h **** 
 867:Drivers/CMSIS/Include/cmsis_gcc.h **** /**
 868:Drivers/CMSIS/Include/cmsis_gcc.h ****   \brief   Load-Acquire Exclusive (32 bit)
 869:Drivers/CMSIS/Include/cmsis_gcc.h ****   \details Executes a LDA exclusive instruction for 32 bit values.
 870:Drivers/CMSIS/Include/cmsis_gcc.h ****   \param [in]    ptr  Pointer to data
 871:Drivers/CMSIS/Include/cmsis_gcc.h ****   \return        value of type uint32_t at (*ptr)
 872:Drivers/CMSIS/Include/cmsis_gcc.h ****  */
 873:Drivers/CMSIS/Include/cmsis_gcc.h **** __STATIC_FORCEINLINE uint32_t __LDAEX(volatile uint32_t *ptr)
 874:Drivers/CMSIS/Include/cmsis_gcc.h **** {
 875:Drivers/CMSIS/Include/cmsis_gcc.h ****     uint32_t result;
 876:Drivers/CMSIS/Include/cmsis_gcc.h **** 
 877:Drivers/CMSIS/Include/cmsis_gcc.h ****    __ASM volatile ("ldaex %0, %1" : "=r" (result) : "Q" (*ptr) : "memory" );
 878:Drivers/CMSIS/Include/cmsis_gcc.h ****    return(result);
 879:Drivers/CMSIS/Include/cmsis_gcc.h **** }
 880:Drivers/CMSIS/Include/cmsis_gcc.h **** 
 881:Drivers/CMSIS/Include/cmsis_gcc.h **** 
 882:Drivers/CMSIS/Include/cmsis_gcc.h **** /**
 883:Drivers/CMSIS/Include/cmsis_gcc.h ****   \brief   Store-Release Exclusive (8 bit)
 884:Drivers/CMSIS/Include/cmsis_gcc.h ****   \details Executes a STLB exclusive instruction for 8 bit values.
 885:Drivers/CMSIS/Include/cmsis_gcc.h ****   \param [in]  value  Value to store
 886:Drivers/CMSIS/Include/cmsis_gcc.h ****   \param [in]    ptr  Pointer to location
 887:Drivers/CMSIS/Include/cmsis_gcc.h ****   \return          0  Function succeeded
 888:Drivers/CMSIS/Include/cmsis_gcc.h ****   \return          1  Function failed
 889:Drivers/CMSIS/Include/cmsis_gcc.h ****  */
 890:Drivers/CMSIS/Include/cmsis_gcc.h **** __STATIC_FORCEINLINE uint32_t __STLEXB(uint8_t value, volatile uint8_t *ptr)
 891:Drivers/CMSIS/Include/cmsis_gcc.h **** {
 892:Drivers/CMSIS/Include/cmsis_gcc.h ****    uint32_t result;
 893:Drivers/CMSIS/Include/cmsis_gcc.h **** 
 894:Drivers/CMSIS/Include/cmsis_gcc.h ****    __ASM volatile ("stlexb %0, %2, %1" : "=&r" (result), "=Q" (*ptr) : "r" ((uint32_t)value) : "mem
 895:Drivers/CMSIS/Include/cmsis_gcc.h ****    return(result);
 896:Drivers/CMSIS/Include/cmsis_gcc.h **** }
 897:Drivers/CMSIS/Include/cmsis_gcc.h **** 
 898:Drivers/CMSIS/Include/cmsis_gcc.h **** 
 899:Drivers/CMSIS/Include/cmsis_gcc.h **** /**
 900:Drivers/CMSIS/Include/cmsis_gcc.h ****   \brief   Store-Release Exclusive (16 bit)
 901:Drivers/CMSIS/Include/cmsis_gcc.h ****   \details Executes a STLH exclusive instruction for 16 bit values.
 902:Drivers/CMSIS/Include/cmsis_gcc.h ****   \param [in]  value  Value to store
 903:Drivers/CMSIS/Include/cmsis_gcc.h ****   \param [in]    ptr  Pointer to location
 904:Drivers/CMSIS/Include/cmsis_gcc.h ****   \return          0  Function succeeded
 905:Drivers/CMSIS/Include/cmsis_gcc.h ****   \return          1  Function failed
 906:Drivers/CMSIS/Include/cmsis_gcc.h ****  */
 907:Drivers/CMSIS/Include/cmsis_gcc.h **** __STATIC_FORCEINLINE uint32_t __STLEXH(uint16_t value, volatile uint16_t *ptr)
 908:Drivers/CMSIS/Include/cmsis_gcc.h **** {
 909:Drivers/CMSIS/Include/cmsis_gcc.h ****    uint32_t result;
 910:Drivers/CMSIS/Include/cmsis_gcc.h **** 
 911:Drivers/CMSIS/Include/cmsis_gcc.h ****    __ASM volatile ("stlexh %0, %2, %1" : "=&r" (result), "=Q" (*ptr) : "r" ((uint32_t)value) : "mem
 912:Drivers/CMSIS/Include/cmsis_gcc.h ****    return(result);
 913:Drivers/CMSIS/Include/cmsis_gcc.h **** }
 914:Drivers/CMSIS/Include/cmsis_gcc.h **** 
 915:Drivers/CMSIS/Include/cmsis_gcc.h **** 
ARM GAS  C:\Users\nhlan\AppData\Local\Temp\ccrObDJv.s 			page 33


 916:Drivers/CMSIS/Include/cmsis_gcc.h **** /**
 917:Drivers/CMSIS/Include/cmsis_gcc.h ****   \brief   Store-Release Exclusive (32 bit)
 918:Drivers/CMSIS/Include/cmsis_gcc.h ****   \details Executes a STL exclusive instruction for 32 bit values.
 919:Drivers/CMSIS/Include/cmsis_gcc.h ****   \param [in]  value  Value to store
 920:Drivers/CMSIS/Include/cmsis_gcc.h ****   \param [in]    ptr  Pointer to location
 921:Drivers/CMSIS/Include/cmsis_gcc.h ****   \return          0  Function succeeded
 922:Drivers/CMSIS/Include/cmsis_gcc.h ****   \return          1  Function failed
 923:Drivers/CMSIS/Include/cmsis_gcc.h ****  */
 924:Drivers/CMSIS/Include/cmsis_gcc.h **** __STATIC_FORCEINLINE uint32_t __STLEX(uint32_t value, volatile uint32_t *ptr)
 925:Drivers/CMSIS/Include/cmsis_gcc.h **** {
 926:Drivers/CMSIS/Include/cmsis_gcc.h ****    uint32_t result;
 927:Drivers/CMSIS/Include/cmsis_gcc.h **** 
 928:Drivers/CMSIS/Include/cmsis_gcc.h ****    __ASM volatile ("stlex %0, %2, %1" : "=&r" (result), "=Q" (*ptr) : "r" ((uint32_t)value) : "memo
 929:Drivers/CMSIS/Include/cmsis_gcc.h ****    return(result);
 930:Drivers/CMSIS/Include/cmsis_gcc.h **** }
 931:Drivers/CMSIS/Include/cmsis_gcc.h **** 
 932:Drivers/CMSIS/Include/cmsis_gcc.h **** #endif /* ((defined (__ARM_ARCH_8M_MAIN__ ) && (__ARM_ARCH_8M_MAIN__ == 1)) || \
 933:Drivers/CMSIS/Include/cmsis_gcc.h ****            (defined (__ARM_ARCH_8M_BASE__ ) && (__ARM_ARCH_8M_BASE__ == 1))    ) */
 934:Drivers/CMSIS/Include/cmsis_gcc.h **** 
 935:Drivers/CMSIS/Include/cmsis_gcc.h **** /*@}*/ /* end of group CMSIS_Core_InstructionInterface */
 936:Drivers/CMSIS/Include/cmsis_gcc.h **** 
 937:Drivers/CMSIS/Include/cmsis_gcc.h **** 
 938:Drivers/CMSIS/Include/cmsis_gcc.h **** /* ###########################  Core Function Access  ########################### */
 939:Drivers/CMSIS/Include/cmsis_gcc.h **** /** \ingroup  CMSIS_Core_FunctionInterface
 940:Drivers/CMSIS/Include/cmsis_gcc.h ****     \defgroup CMSIS_Core_RegAccFunctions CMSIS Core Register Access Functions
 941:Drivers/CMSIS/Include/cmsis_gcc.h ****   @{
 942:Drivers/CMSIS/Include/cmsis_gcc.h ****  */
 943:Drivers/CMSIS/Include/cmsis_gcc.h **** 
 944:Drivers/CMSIS/Include/cmsis_gcc.h **** /**
 945:Drivers/CMSIS/Include/cmsis_gcc.h ****   \brief   Enable IRQ Interrupts
 946:Drivers/CMSIS/Include/cmsis_gcc.h ****   \details Enables IRQ interrupts by clearing special-purpose register PRIMASK.
 947:Drivers/CMSIS/Include/cmsis_gcc.h ****            Can only be executed in Privileged modes.
 948:Drivers/CMSIS/Include/cmsis_gcc.h ****  */
 949:Drivers/CMSIS/Include/cmsis_gcc.h **** __STATIC_FORCEINLINE void __enable_irq(void)
 950:Drivers/CMSIS/Include/cmsis_gcc.h **** {
 951:Drivers/CMSIS/Include/cmsis_gcc.h ****   __ASM volatile ("cpsie i" : : : "memory");
 952:Drivers/CMSIS/Include/cmsis_gcc.h **** }
 953:Drivers/CMSIS/Include/cmsis_gcc.h **** 
 954:Drivers/CMSIS/Include/cmsis_gcc.h **** 
 955:Drivers/CMSIS/Include/cmsis_gcc.h **** /**
 956:Drivers/CMSIS/Include/cmsis_gcc.h ****   \brief   Disable IRQ Interrupts
 957:Drivers/CMSIS/Include/cmsis_gcc.h ****   \details Disables IRQ interrupts by setting special-purpose register PRIMASK.
 958:Drivers/CMSIS/Include/cmsis_gcc.h ****            Can only be executed in Privileged modes.
 959:Drivers/CMSIS/Include/cmsis_gcc.h ****  */
 960:Drivers/CMSIS/Include/cmsis_gcc.h **** __STATIC_FORCEINLINE void __disable_irq(void)
 409              		.loc 2 960 27 view .LVU87
 410              	.LBB9:
 961:Drivers/CMSIS/Include/cmsis_gcc.h **** {
 962:Drivers/CMSIS/Include/cmsis_gcc.h ****   __ASM volatile ("cpsid i" : : : "memory");
 411              		.loc 2 962 3 view .LVU88
 412              		.syntax unified
 413              	@ 962 "Drivers/CMSIS/Include/cmsis_gcc.h" 1
 414 0000 72B6     		cpsid i
 415              	@ 0 "" 2
 416              		.thumb
 417              		.syntax unified
 418              	.L16:
ARM GAS  C:\Users\nhlan\AppData\Local\Temp\ccrObDJv.s 			page 34


 419              	.LBE9:
 420              	.LBE8:
 478:Core/Src/main.c ****   while (1)
 421              		.loc 1 478 3 view .LVU89
 479:Core/Src/main.c ****   {
 480:Core/Src/main.c ****   }
 422              		.loc 1 480 3 view .LVU90
 478:Core/Src/main.c ****   while (1)
 423              		.loc 1 478 9 view .LVU91
 424 0002 FEE7     		b	.L16
 425              		.cfi_endproc
 426              	.LFE144:
 428              		.section	.text.MX_TIM2_Init,"ax",%progbits
 429              		.align	1
 430              		.syntax unified
 431              		.thumb
 432              		.thumb_func
 434              	MX_TIM2_Init:
 435              	.LFB139:
 201:Core/Src/main.c **** 
 436              		.loc 1 201 1 view -0
 437              		.cfi_startproc
 438              		@ args = 0, pretend = 0, frame = 56
 439              		@ frame_needed = 0, uses_anonymous_args = 0
 440 0000 00B5     		push	{lr}
 441              		.cfi_def_cfa_offset 4
 442              		.cfi_offset 14, -4
 443 0002 8FB0     		sub	sp, sp, #60
 444              		.cfi_def_cfa_offset 64
 207:Core/Src/main.c ****   TIM_MasterConfigTypeDef sMasterConfig = {0};
 445              		.loc 1 207 3 view .LVU93
 207:Core/Src/main.c ****   TIM_MasterConfigTypeDef sMasterConfig = {0};
 446              		.loc 1 207 26 is_stmt 0 view .LVU94
 447 0004 0023     		movs	r3, #0
 448 0006 0A93     		str	r3, [sp, #40]
 449 0008 0B93     		str	r3, [sp, #44]
 450 000a 0C93     		str	r3, [sp, #48]
 451 000c 0D93     		str	r3, [sp, #52]
 208:Core/Src/main.c ****   TIM_OC_InitTypeDef sConfigOC = {0};
 452              		.loc 1 208 3 is_stmt 1 view .LVU95
 208:Core/Src/main.c ****   TIM_OC_InitTypeDef sConfigOC = {0};
 453              		.loc 1 208 27 is_stmt 0 view .LVU96
 454 000e 0893     		str	r3, [sp, #32]
 455 0010 0993     		str	r3, [sp, #36]
 209:Core/Src/main.c **** 
 456              		.loc 1 209 3 is_stmt 1 view .LVU97
 209:Core/Src/main.c **** 
 457              		.loc 1 209 22 is_stmt 0 view .LVU98
 458 0012 0193     		str	r3, [sp, #4]
 459 0014 0293     		str	r3, [sp, #8]
 460 0016 0393     		str	r3, [sp, #12]
 461 0018 0493     		str	r3, [sp, #16]
 462 001a 0593     		str	r3, [sp, #20]
 463 001c 0693     		str	r3, [sp, #24]
 464 001e 0793     		str	r3, [sp, #28]
 214:Core/Src/main.c ****   htim2.Init.Prescaler = 0;
 465              		.loc 1 214 3 is_stmt 1 view .LVU99
ARM GAS  C:\Users\nhlan\AppData\Local\Temp\ccrObDJv.s 			page 35


 214:Core/Src/main.c ****   htim2.Init.Prescaler = 0;
 466              		.loc 1 214 18 is_stmt 0 view .LVU100
 467 0020 3748     		ldr	r0, .L31
 468 0022 4FF08042 		mov	r2, #1073741824
 469 0026 0260     		str	r2, [r0]
 215:Core/Src/main.c ****   htim2.Init.CounterMode = TIM_COUNTERMODE_UP;
 470              		.loc 1 215 3 is_stmt 1 view .LVU101
 215:Core/Src/main.c ****   htim2.Init.CounterMode = TIM_COUNTERMODE_UP;
 471              		.loc 1 215 24 is_stmt 0 view .LVU102
 472 0028 4360     		str	r3, [r0, #4]
 216:Core/Src/main.c ****   htim2.Init.Period = TIM2_Ticks;
 473              		.loc 1 216 3 is_stmt 1 view .LVU103
 216:Core/Src/main.c ****   htim2.Init.Period = TIM2_Ticks;
 474              		.loc 1 216 26 is_stmt 0 view .LVU104
 475 002a 8360     		str	r3, [r0, #8]
 217:Core/Src/main.c ****   htim2.Init.ClockDivision = TIM_CLOCKDIVISION_DIV1;
 476              		.loc 1 217 3 is_stmt 1 view .LVU105
 217:Core/Src/main.c ****   htim2.Init.ClockDivision = TIM_CLOCKDIVISION_DIV1;
 477              		.loc 1 217 21 is_stmt 0 view .LVU106
 478 002c 354A     		ldr	r2, .L31+4
 479 002e 1268     		ldr	r2, [r2]
 480 0030 C260     		str	r2, [r0, #12]
 218:Core/Src/main.c ****   htim2.Init.AutoReloadPreload = TIM_AUTORELOAD_PRELOAD_DISABLE;
 481              		.loc 1 218 3 is_stmt 1 view .LVU107
 218:Core/Src/main.c ****   htim2.Init.AutoReloadPreload = TIM_AUTORELOAD_PRELOAD_DISABLE;
 482              		.loc 1 218 28 is_stmt 0 view .LVU108
 483 0032 0361     		str	r3, [r0, #16]
 219:Core/Src/main.c ****   if (HAL_TIM_Base_Init(&htim2) != HAL_OK)
 484              		.loc 1 219 3 is_stmt 1 view .LVU109
 219:Core/Src/main.c ****   if (HAL_TIM_Base_Init(&htim2) != HAL_OK)
 485              		.loc 1 219 32 is_stmt 0 view .LVU110
 486 0034 8361     		str	r3, [r0, #24]
 220:Core/Src/main.c ****   {
 487              		.loc 1 220 3 is_stmt 1 view .LVU111
 220:Core/Src/main.c ****   {
 488              		.loc 1 220 7 is_stmt 0 view .LVU112
 489 0036 FFF7FEFF 		bl	HAL_TIM_Base_Init
 490              	.LVL24:
 220:Core/Src/main.c ****   {
 491              		.loc 1 220 6 discriminator 1 view .LVU113
 492 003a 0028     		cmp	r0, #0
 493 003c 53D1     		bne	.L25
 224:Core/Src/main.c ****   if (HAL_TIM_ConfigClockSource(&htim2, &sClockSourceConfig) != HAL_OK)
 494              		.loc 1 224 3 is_stmt 1 view .LVU114
 224:Core/Src/main.c ****   if (HAL_TIM_ConfigClockSource(&htim2, &sClockSourceConfig) != HAL_OK)
 495              		.loc 1 224 34 is_stmt 0 view .LVU115
 496 003e 4FF48053 		mov	r3, #4096
 497 0042 0A93     		str	r3, [sp, #40]
 225:Core/Src/main.c ****   {
 498              		.loc 1 225 3 is_stmt 1 view .LVU116
 225:Core/Src/main.c ****   {
 499              		.loc 1 225 7 is_stmt 0 view .LVU117
 500 0044 0AA9     		add	r1, sp, #40
 501 0046 2E48     		ldr	r0, .L31
 502 0048 FFF7FEFF 		bl	HAL_TIM_ConfigClockSource
 503              	.LVL25:
 225:Core/Src/main.c ****   {
ARM GAS  C:\Users\nhlan\AppData\Local\Temp\ccrObDJv.s 			page 36


 504              		.loc 1 225 6 discriminator 1 view .LVU118
 505 004c 0028     		cmp	r0, #0
 506 004e 4CD1     		bne	.L26
 229:Core/Src/main.c ****   {
 507              		.loc 1 229 3 is_stmt 1 view .LVU119
 229:Core/Src/main.c ****   {
 508              		.loc 1 229 7 is_stmt 0 view .LVU120
 509 0050 2B48     		ldr	r0, .L31
 510 0052 FFF7FEFF 		bl	HAL_TIM_OC_Init
 511              	.LVL26:
 229:Core/Src/main.c ****   {
 512              		.loc 1 229 6 discriminator 1 view .LVU121
 513 0056 0028     		cmp	r0, #0
 514 0058 49D1     		bne	.L27
 233:Core/Src/main.c ****   sMasterConfig.MasterSlaveMode = TIM_MASTERSLAVEMODE_DISABLE;
 515              		.loc 1 233 3 is_stmt 1 view .LVU122
 233:Core/Src/main.c ****   sMasterConfig.MasterSlaveMode = TIM_MASTERSLAVEMODE_DISABLE;
 516              		.loc 1 233 37 is_stmt 0 view .LVU123
 517 005a 0023     		movs	r3, #0
 518 005c 0893     		str	r3, [sp, #32]
 234:Core/Src/main.c ****   if (HAL_TIMEx_MasterConfigSynchronization(&htim2, &sMasterConfig) != HAL_OK)
 519              		.loc 1 234 3 is_stmt 1 view .LVU124
 234:Core/Src/main.c ****   if (HAL_TIMEx_MasterConfigSynchronization(&htim2, &sMasterConfig) != HAL_OK)
 520              		.loc 1 234 33 is_stmt 0 view .LVU125
 521 005e 0993     		str	r3, [sp, #36]
 235:Core/Src/main.c ****   {
 522              		.loc 1 235 3 is_stmt 1 view .LVU126
 235:Core/Src/main.c ****   {
 523              		.loc 1 235 7 is_stmt 0 view .LVU127
 524 0060 08A9     		add	r1, sp, #32
 525 0062 2748     		ldr	r0, .L31
 526 0064 FFF7FEFF 		bl	HAL_TIMEx_MasterConfigSynchronization
 527              	.LVL27:
 235:Core/Src/main.c ****   {
 528              		.loc 1 235 6 discriminator 1 view .LVU128
 529 0068 0028     		cmp	r0, #0
 530 006a 42D1     		bne	.L28
 239:Core/Src/main.c **** 
 531              		.loc 1 239 3 is_stmt 1 view .LVU129
 239:Core/Src/main.c **** 
 532              		.loc 1 239 20 is_stmt 0 view .LVU130
 533 006c 0022     		movs	r2, #0
 534 006e 0192     		str	r2, [sp, #4]
 241:Core/Src/main.c ****   sConfigOC.OCPolarity = TIM_OCPOLARITY_HIGH;
 535              		.loc 1 241 3 is_stmt 1 view .LVU131
 241:Core/Src/main.c ****   sConfigOC.OCPolarity = TIM_OCPOLARITY_HIGH;
 536              		.loc 1 241 32 is_stmt 0 view .LVU132
 537 0070 244B     		ldr	r3, .L31+4
 538 0072 1B68     		ldr	r3, [r3]
 539 0074 013B     		subs	r3, r3, #1
 241:Core/Src/main.c ****   sConfigOC.OCPolarity = TIM_OCPOLARITY_HIGH;
 540              		.loc 1 241 19 view .LVU133
 541 0076 0293     		str	r3, [sp, #8]
 242:Core/Src/main.c ****   sConfigOC.OCFastMode = TIM_OCFAST_DISABLE;
 542              		.loc 1 242 3 is_stmt 1 view .LVU134
 242:Core/Src/main.c ****   sConfigOC.OCFastMode = TIM_OCFAST_DISABLE;
 543              		.loc 1 242 24 is_stmt 0 view .LVU135
ARM GAS  C:\Users\nhlan\AppData\Local\Temp\ccrObDJv.s 			page 37


 544 0078 0392     		str	r2, [sp, #12]
 243:Core/Src/main.c ****   if (HAL_TIM_OC_ConfigChannel(&htim2, &sConfigOC, TIM_CHANNEL_1) != HAL_OK)
 545              		.loc 1 243 3 is_stmt 1 view .LVU136
 243:Core/Src/main.c ****   if (HAL_TIM_OC_ConfigChannel(&htim2, &sConfigOC, TIM_CHANNEL_1) != HAL_OK)
 546              		.loc 1 243 24 is_stmt 0 view .LVU137
 547 007a 0592     		str	r2, [sp, #20]
 244:Core/Src/main.c ****   {
 548              		.loc 1 244 3 is_stmt 1 view .LVU138
 244:Core/Src/main.c ****   {
 549              		.loc 1 244 7 is_stmt 0 view .LVU139
 550 007c 01A9     		add	r1, sp, #4
 551 007e 2048     		ldr	r0, .L31
 552 0080 FFF7FEFF 		bl	HAL_TIM_OC_ConfigChannel
 553              	.LVL28:
 244:Core/Src/main.c ****   {
 554              		.loc 1 244 6 discriminator 1 view .LVU140
 555 0084 0028     		cmp	r0, #0
 556 0086 36D1     		bne	.L29
 250:Core/Src/main.c **** 
 557              		.loc 1 250 3 is_stmt 1 view .LVU141
 558              	.LBB10:
 250:Core/Src/main.c **** 
 559              		.loc 1 250 3 view .LVU142
 560 0088 0023     		movs	r3, #0
 561 008a 0093     		str	r3, [sp]
 250:Core/Src/main.c **** 
 562              		.loc 1 250 3 view .LVU143
 563 008c 1E4A     		ldr	r2, .L31+8
 564 008e 116B     		ldr	r1, [r2, #48]
 565 0090 41F40011 		orr	r1, r1, #2097152
 566 0094 1163     		str	r1, [r2, #48]
 250:Core/Src/main.c **** 
 567              		.loc 1 250 3 view .LVU144
 568 0096 126B     		ldr	r2, [r2, #48]
 569 0098 02F40012 		and	r2, r2, #2097152
 570 009c 0092     		str	r2, [sp]
 250:Core/Src/main.c **** 
 571              		.loc 1 250 3 view .LVU145
 572 009e 009A     		ldr	r2, [sp]
 573              	.LBE10:
 250:Core/Src/main.c **** 
 574              		.loc 1 250 3 view .LVU146
 252:Core/Src/main.c ****   hdma_tim2_ch1.Init.Channel = DMA_CHANNEL_3;         // TIM2_CH1 is on channel 3
 575              		.loc 1 252 3 view .LVU147
 252:Core/Src/main.c ****   hdma_tim2_ch1.Init.Channel = DMA_CHANNEL_3;         // TIM2_CH1 is on channel 3
 576              		.loc 1 252 26 is_stmt 0 view .LVU148
 577 00a0 1A48     		ldr	r0, .L31+12
 578 00a2 1B4A     		ldr	r2, .L31+16
 579 00a4 0260     		str	r2, [r0]
 253:Core/Src/main.c ****   hdma_tim2_ch1.Init.Direction = DMA_MEMORY_TO_PERIPH; // Memory -> TIM3->CCR3
 580              		.loc 1 253 3 is_stmt 1 view .LVU149
 253:Core/Src/main.c ****   hdma_tim2_ch1.Init.Direction = DMA_MEMORY_TO_PERIPH; // Memory -> TIM3->CCR3
 581              		.loc 1 253 30 is_stmt 0 view .LVU150
 582 00a6 4FF0C062 		mov	r2, #100663296
 583 00aa 4260     		str	r2, [r0, #4]
 254:Core/Src/main.c ****   hdma_tim2_ch1.Init.PeriphInc = DMA_PINC_DISABLE;    // Peripheral address fixed
 584              		.loc 1 254 3 is_stmt 1 view .LVU151
ARM GAS  C:\Users\nhlan\AppData\Local\Temp\ccrObDJv.s 			page 38


 254:Core/Src/main.c ****   hdma_tim2_ch1.Init.PeriphInc = DMA_PINC_DISABLE;    // Peripheral address fixed
 585              		.loc 1 254 32 is_stmt 0 view .LVU152
 586 00ac 4022     		movs	r2, #64
 587 00ae 8260     		str	r2, [r0, #8]
 255:Core/Src/main.c ****   hdma_tim2_ch1.Init.MemInc = DMA_MINC_ENABLE;        // Memory address increments
 588              		.loc 1 255 3 is_stmt 1 view .LVU153
 255:Core/Src/main.c ****   hdma_tim2_ch1.Init.MemInc = DMA_MINC_ENABLE;        // Memory address increments
 589              		.loc 1 255 32 is_stmt 0 view .LVU154
 590 00b0 C360     		str	r3, [r0, #12]
 256:Core/Src/main.c ****   hdma_tim2_ch1.Init.PeriphDataAlignment = DMA_PDATAALIGN_WORD;
 591              		.loc 1 256 3 is_stmt 1 view .LVU155
 256:Core/Src/main.c ****   hdma_tim2_ch1.Init.PeriphDataAlignment = DMA_PDATAALIGN_WORD;
 592              		.loc 1 256 29 is_stmt 0 view .LVU156
 593 00b2 4FF48062 		mov	r2, #1024
 594 00b6 0261     		str	r2, [r0, #16]
 257:Core/Src/main.c ****   hdma_tim2_ch1.Init.MemDataAlignment = DMA_MDATAALIGN_WORD;
 595              		.loc 1 257 3 is_stmt 1 view .LVU157
 257:Core/Src/main.c ****   hdma_tim2_ch1.Init.MemDataAlignment = DMA_MDATAALIGN_WORD;
 596              		.loc 1 257 42 is_stmt 0 view .LVU158
 597 00b8 4FF48052 		mov	r2, #4096
 598 00bc 4261     		str	r2, [r0, #20]
 258:Core/Src/main.c ****   hdma_tim2_ch1.Init.Mode = DMA_CIRCULAR;            // Repeat LUT automatically
 599              		.loc 1 258 3 is_stmt 1 view .LVU159
 258:Core/Src/main.c ****   hdma_tim2_ch1.Init.Mode = DMA_CIRCULAR;            // Repeat LUT automatically
 600              		.loc 1 258 39 is_stmt 0 view .LVU160
 601 00be 4FF48042 		mov	r2, #16384
 602 00c2 8261     		str	r2, [r0, #24]
 259:Core/Src/main.c ****   hdma_tim2_ch1.Init.Priority = DMA_PRIORITY_HIGH;
 603              		.loc 1 259 3 is_stmt 1 view .LVU161
 259:Core/Src/main.c ****   hdma_tim2_ch1.Init.Priority = DMA_PRIORITY_HIGH;
 604              		.loc 1 259 27 is_stmt 0 view .LVU162
 605 00c4 4FF48072 		mov	r2, #256
 606 00c8 C261     		str	r2, [r0, #28]
 260:Core/Src/main.c ****   hdma_tim2_ch1.Init.FIFOMode = DMA_FIFOMODE_DISABLE;
 607              		.loc 1 260 3 is_stmt 1 view .LVU163
 260:Core/Src/main.c ****   hdma_tim2_ch1.Init.FIFOMode = DMA_FIFOMODE_DISABLE;
 608              		.loc 1 260 31 is_stmt 0 view .LVU164
 609 00ca 4FF40032 		mov	r2, #131072
 610 00ce 0262     		str	r2, [r0, #32]
 261:Core/Src/main.c **** 
 611              		.loc 1 261 3 is_stmt 1 view .LVU165
 261:Core/Src/main.c **** 
 612              		.loc 1 261 31 is_stmt 0 view .LVU166
 613 00d0 4362     		str	r3, [r0, #36]
 263:Core/Src/main.c ****   {
 614              		.loc 1 263 3 is_stmt 1 view .LVU167
 263:Core/Src/main.c ****   {
 615              		.loc 1 263 7 is_stmt 0 view .LVU168
 616 00d2 FFF7FEFF 		bl	HAL_DMA_Init
 617              	.LVL29:
 263:Core/Src/main.c ****   {
 618              		.loc 1 263 6 discriminator 1 view .LVU169
 619 00d6 80B9     		cbnz	r0, .L30
 269:Core/Src/main.c ****   /* USER CODE END TIM2_Init 2 */
 620              		.loc 1 269 3 is_stmt 1 view .LVU170
 269:Core/Src/main.c ****   /* USER CODE END TIM2_Init 2 */
 621              		.loc 1 269 3 view .LVU171
ARM GAS  C:\Users\nhlan\AppData\Local\Temp\ccrObDJv.s 			page 39


 622 00d8 094A     		ldr	r2, .L31
 623 00da 0C4B     		ldr	r3, .L31+12
 624 00dc 5362     		str	r3, [r2, #36]
 269:Core/Src/main.c ****   /* USER CODE END TIM2_Init 2 */
 625              		.loc 1 269 3 view .LVU172
 626 00de 9A63     		str	r2, [r3, #56]
 269:Core/Src/main.c ****   /* USER CODE END TIM2_Init 2 */
 627              		.loc 1 269 3 view .LVU173
 272:Core/Src/main.c **** 
 628              		.loc 1 272 1 is_stmt 0 view .LVU174
 629 00e0 0FB0     		add	sp, sp, #60
 630              		.cfi_remember_state
 631              		.cfi_def_cfa_offset 4
 632              		@ sp needed
 633 00e2 5DF804FB 		ldr	pc, [sp], #4
 634              	.L25:
 635              		.cfi_restore_state
 222:Core/Src/main.c ****   }
 636              		.loc 1 222 5 is_stmt 1 view .LVU175
 637 00e6 FFF7FEFF 		bl	Error_Handler
 638              	.LVL30:
 639              	.L26:
 227:Core/Src/main.c ****   }
 640              		.loc 1 227 5 view .LVU176
 641 00ea FFF7FEFF 		bl	Error_Handler
 642              	.LVL31:
 643              	.L27:
 231:Core/Src/main.c ****   }
 644              		.loc 1 231 5 view .LVU177
 645 00ee FFF7FEFF 		bl	Error_Handler
 646              	.LVL32:
 647              	.L28:
 237:Core/Src/main.c ****   }
 648              		.loc 1 237 5 view .LVU178
 649 00f2 FFF7FEFF 		bl	Error_Handler
 650              	.LVL33:
 651              	.L29:
 246:Core/Src/main.c ****   }
 652              		.loc 1 246 5 view .LVU179
 653 00f6 FFF7FEFF 		bl	Error_Handler
 654              	.LVL34:
 655              	.L30:
 265:Core/Src/main.c ****   }
 656              		.loc 1 265 7 view .LVU180
 657 00fa FFF7FEFF 		bl	Error_Handler
 658              	.LVL35:
 659              	.L32:
 660 00fe 00BF     		.align	2
 661              	.L31:
 662 0100 00000000 		.word	htim2
 663 0104 00000000 		.word	TIM2_Ticks
 664 0108 00380240 		.word	1073887232
 665 010c 00000000 		.word	hdma_tim2_ch1
 666 0110 88600240 		.word	1073897608
 667              		.cfi_endproc
 668              	.LFE139:
 670              		.section	.text.MX_TIM3_Init,"ax",%progbits
ARM GAS  C:\Users\nhlan\AppData\Local\Temp\ccrObDJv.s 			page 40


 671              		.align	1
 672              		.syntax unified
 673              		.thumb
 674              		.thumb_func
 676              	MX_TIM3_Init:
 677              	.LFB140:
 280:Core/Src/main.c **** 
 678              		.loc 1 280 1 view -0
 679              		.cfi_startproc
 680              		@ args = 0, pretend = 0, frame = 56
 681              		@ frame_needed = 0, uses_anonymous_args = 0
 682 0000 00B5     		push	{lr}
 683              		.cfi_def_cfa_offset 4
 684              		.cfi_offset 14, -4
 685 0002 8FB0     		sub	sp, sp, #60
 686              		.cfi_def_cfa_offset 64
 286:Core/Src/main.c ****   TIM_MasterConfigTypeDef sMasterConfig = {0};
 687              		.loc 1 286 3 view .LVU182
 286:Core/Src/main.c ****   TIM_MasterConfigTypeDef sMasterConfig = {0};
 688              		.loc 1 286 26 is_stmt 0 view .LVU183
 689 0004 0023     		movs	r3, #0
 690 0006 0A93     		str	r3, [sp, #40]
 691 0008 0B93     		str	r3, [sp, #44]
 692 000a 0C93     		str	r3, [sp, #48]
 693 000c 0D93     		str	r3, [sp, #52]
 287:Core/Src/main.c ****   TIM_OC_InitTypeDef sConfigOC = {0};
 694              		.loc 1 287 3 is_stmt 1 view .LVU184
 287:Core/Src/main.c ****   TIM_OC_InitTypeDef sConfigOC = {0};
 695              		.loc 1 287 27 is_stmt 0 view .LVU185
 696 000e 0893     		str	r3, [sp, #32]
 697 0010 0993     		str	r3, [sp, #36]
 288:Core/Src/main.c **** 
 698              		.loc 1 288 3 is_stmt 1 view .LVU186
 288:Core/Src/main.c **** 
 699              		.loc 1 288 22 is_stmt 0 view .LVU187
 700 0012 0193     		str	r3, [sp, #4]
 701 0014 0293     		str	r3, [sp, #8]
 702 0016 0393     		str	r3, [sp, #12]
 703 0018 0493     		str	r3, [sp, #16]
 704 001a 0593     		str	r3, [sp, #20]
 705 001c 0693     		str	r3, [sp, #24]
 706 001e 0793     		str	r3, [sp, #28]
 293:Core/Src/main.c ****   htim3.Init.Prescaler = 0;
 707              		.loc 1 293 3 is_stmt 1 view .LVU188
 293:Core/Src/main.c ****   htim3.Init.Prescaler = 0;
 708              		.loc 1 293 18 is_stmt 0 view .LVU189
 709 0020 1E48     		ldr	r0, .L45
 710 0022 1F4A     		ldr	r2, .L45+4
 711 0024 0260     		str	r2, [r0]
 294:Core/Src/main.c ****   htim3.Init.CounterMode = TIM_COUNTERMODE_UP;
 712              		.loc 1 294 3 is_stmt 1 view .LVU190
 294:Core/Src/main.c ****   htim3.Init.CounterMode = TIM_COUNTERMODE_UP;
 713              		.loc 1 294 24 is_stmt 0 view .LVU191
 714 0026 4360     		str	r3, [r0, #4]
 295:Core/Src/main.c ****   htim3.Init.Period = 4095;
 715              		.loc 1 295 3 is_stmt 1 view .LVU192
 295:Core/Src/main.c ****   htim3.Init.Period = 4095;
ARM GAS  C:\Users\nhlan\AppData\Local\Temp\ccrObDJv.s 			page 41


 716              		.loc 1 295 26 is_stmt 0 view .LVU193
 717 0028 8360     		str	r3, [r0, #8]
 296:Core/Src/main.c ****   htim3.Init.ClockDivision = TIM_CLOCKDIVISION_DIV1;
 718              		.loc 1 296 3 is_stmt 1 view .LVU194
 296:Core/Src/main.c ****   htim3.Init.ClockDivision = TIM_CLOCKDIVISION_DIV1;
 719              		.loc 1 296 21 is_stmt 0 view .LVU195
 720 002a 40F6FF72 		movw	r2, #4095
 721 002e C260     		str	r2, [r0, #12]
 297:Core/Src/main.c ****   htim3.Init.AutoReloadPreload = TIM_AUTORELOAD_PRELOAD_DISABLE;
 722              		.loc 1 297 3 is_stmt 1 view .LVU196
 297:Core/Src/main.c ****   htim3.Init.AutoReloadPreload = TIM_AUTORELOAD_PRELOAD_DISABLE;
 723              		.loc 1 297 28 is_stmt 0 view .LVU197
 724 0030 0361     		str	r3, [r0, #16]
 298:Core/Src/main.c ****   if (HAL_TIM_Base_Init(&htim3) != HAL_OK)
 725              		.loc 1 298 3 is_stmt 1 view .LVU198
 298:Core/Src/main.c ****   if (HAL_TIM_Base_Init(&htim3) != HAL_OK)
 726              		.loc 1 298 32 is_stmt 0 view .LVU199
 727 0032 8361     		str	r3, [r0, #24]
 299:Core/Src/main.c ****   {
 728              		.loc 1 299 3 is_stmt 1 view .LVU200
 299:Core/Src/main.c ****   {
 729              		.loc 1 299 7 is_stmt 0 view .LVU201
 730 0034 FFF7FEFF 		bl	HAL_TIM_Base_Init
 731              	.LVL36:
 299:Core/Src/main.c ****   {
 732              		.loc 1 299 6 discriminator 1 view .LVU202
 733 0038 28BB     		cbnz	r0, .L40
 303:Core/Src/main.c ****   if (HAL_TIM_ConfigClockSource(&htim3, &sClockSourceConfig) != HAL_OK)
 734              		.loc 1 303 3 is_stmt 1 view .LVU203
 303:Core/Src/main.c ****   if (HAL_TIM_ConfigClockSource(&htim3, &sClockSourceConfig) != HAL_OK)
 735              		.loc 1 303 34 is_stmt 0 view .LVU204
 736 003a 4FF48053 		mov	r3, #4096
 737 003e 0A93     		str	r3, [sp, #40]
 304:Core/Src/main.c ****   {
 738              		.loc 1 304 3 is_stmt 1 view .LVU205
 304:Core/Src/main.c ****   {
 739              		.loc 1 304 7 is_stmt 0 view .LVU206
 740 0040 0AA9     		add	r1, sp, #40
 741 0042 1648     		ldr	r0, .L45
 742 0044 FFF7FEFF 		bl	HAL_TIM_ConfigClockSource
 743              	.LVL37:
 304:Core/Src/main.c ****   {
 744              		.loc 1 304 6 discriminator 1 view .LVU207
 745 0048 F8B9     		cbnz	r0, .L41
 308:Core/Src/main.c ****   {
 746              		.loc 1 308 3 is_stmt 1 view .LVU208
 308:Core/Src/main.c ****   {
 747              		.loc 1 308 7 is_stmt 0 view .LVU209
 748 004a 1448     		ldr	r0, .L45
 749 004c FFF7FEFF 		bl	HAL_TIM_PWM_Init
 750              	.LVL38:
 308:Core/Src/main.c ****   {
 751              		.loc 1 308 6 discriminator 1 view .LVU210
 752 0050 E8B9     		cbnz	r0, .L42
 312:Core/Src/main.c ****   sMasterConfig.MasterSlaveMode = TIM_MASTERSLAVEMODE_DISABLE;
 753              		.loc 1 312 3 is_stmt 1 view .LVU211
 312:Core/Src/main.c ****   sMasterConfig.MasterSlaveMode = TIM_MASTERSLAVEMODE_DISABLE;
ARM GAS  C:\Users\nhlan\AppData\Local\Temp\ccrObDJv.s 			page 42


 754              		.loc 1 312 37 is_stmt 0 view .LVU212
 755 0052 0023     		movs	r3, #0
 756 0054 0893     		str	r3, [sp, #32]
 313:Core/Src/main.c ****   if (HAL_TIMEx_MasterConfigSynchronization(&htim3, &sMasterConfig) != HAL_OK)
 757              		.loc 1 313 3 is_stmt 1 view .LVU213
 313:Core/Src/main.c ****   if (HAL_TIMEx_MasterConfigSynchronization(&htim3, &sMasterConfig) != HAL_OK)
 758              		.loc 1 313 33 is_stmt 0 view .LVU214
 759 0056 0993     		str	r3, [sp, #36]
 314:Core/Src/main.c ****   {
 760              		.loc 1 314 3 is_stmt 1 view .LVU215
 314:Core/Src/main.c ****   {
 761              		.loc 1 314 7 is_stmt 0 view .LVU216
 762 0058 08A9     		add	r1, sp, #32
 763 005a 1048     		ldr	r0, .L45
 764 005c FFF7FEFF 		bl	HAL_TIMEx_MasterConfigSynchronization
 765              	.LVL39:
 314:Core/Src/main.c ****   {
 766              		.loc 1 314 6 discriminator 1 view .LVU217
 767 0060 B8B9     		cbnz	r0, .L43
 318:Core/Src/main.c ****   sConfigOC.Pulse = 0;
 768              		.loc 1 318 3 is_stmt 1 view .LVU218
 318:Core/Src/main.c ****   sConfigOC.Pulse = 0;
 769              		.loc 1 318 20 is_stmt 0 view .LVU219
 770 0062 6023     		movs	r3, #96
 771 0064 0193     		str	r3, [sp, #4]
 319:Core/Src/main.c ****   sConfigOC.OCPolarity = TIM_OCPOLARITY_HIGH;
 772              		.loc 1 319 3 is_stmt 1 view .LVU220
 319:Core/Src/main.c ****   sConfigOC.OCPolarity = TIM_OCPOLARITY_HIGH;
 773              		.loc 1 319 19 is_stmt 0 view .LVU221
 774 0066 0023     		movs	r3, #0
 775 0068 0293     		str	r3, [sp, #8]
 320:Core/Src/main.c ****   sConfigOC.OCFastMode = TIM_OCFAST_DISABLE;
 776              		.loc 1 320 3 is_stmt 1 view .LVU222
 320:Core/Src/main.c ****   sConfigOC.OCFastMode = TIM_OCFAST_DISABLE;
 777              		.loc 1 320 24 is_stmt 0 view .LVU223
 778 006a 0393     		str	r3, [sp, #12]
 321:Core/Src/main.c ****   if (HAL_TIM_PWM_ConfigChannel(&htim3, &sConfigOC, TIM_CHANNEL_3) != HAL_OK)
 779              		.loc 1 321 3 is_stmt 1 view .LVU224
 321:Core/Src/main.c ****   if (HAL_TIM_PWM_ConfigChannel(&htim3, &sConfigOC, TIM_CHANNEL_3) != HAL_OK)
 780              		.loc 1 321 24 is_stmt 0 view .LVU225
 781 006c 0593     		str	r3, [sp, #20]
 322:Core/Src/main.c ****   {
 782              		.loc 1 322 3 is_stmt 1 view .LVU226
 322:Core/Src/main.c ****   {
 783              		.loc 1 322 7 is_stmt 0 view .LVU227
 784 006e 0822     		movs	r2, #8
 785 0070 01A9     		add	r1, sp, #4
 786 0072 0A48     		ldr	r0, .L45
 787 0074 FFF7FEFF 		bl	HAL_TIM_PWM_ConfigChannel
 788              	.LVL40:
 322:Core/Src/main.c ****   {
 789              		.loc 1 322 6 discriminator 1 view .LVU228
 790 0078 68B9     		cbnz	r0, .L44
 329:Core/Src/main.c **** 
 791              		.loc 1 329 3 is_stmt 1 view .LVU229
 792 007a 0848     		ldr	r0, .L45
 793 007c FFF7FEFF 		bl	HAL_TIM_MspPostInit
ARM GAS  C:\Users\nhlan\AppData\Local\Temp\ccrObDJv.s 			page 43


 794              	.LVL41:
 331:Core/Src/main.c **** 
 795              		.loc 1 331 1 is_stmt 0 view .LVU230
 796 0080 0FB0     		add	sp, sp, #60
 797              		.cfi_remember_state
 798              		.cfi_def_cfa_offset 4
 799              		@ sp needed
 800 0082 5DF804FB 		ldr	pc, [sp], #4
 801              	.L40:
 802              		.cfi_restore_state
 301:Core/Src/main.c ****   }
 803              		.loc 1 301 5 is_stmt 1 view .LVU231
 804 0086 FFF7FEFF 		bl	Error_Handler
 805              	.LVL42:
 806              	.L41:
 306:Core/Src/main.c ****   }
 807              		.loc 1 306 5 view .LVU232
 808 008a FFF7FEFF 		bl	Error_Handler
 809              	.LVL43:
 810              	.L42:
 310:Core/Src/main.c ****   }
 811              		.loc 1 310 5 view .LVU233
 812 008e FFF7FEFF 		bl	Error_Handler
 813              	.LVL44:
 814              	.L43:
 316:Core/Src/main.c ****   }
 815              		.loc 1 316 5 view .LVU234
 816 0092 FFF7FEFF 		bl	Error_Handler
 817              	.LVL45:
 818              	.L44:
 324:Core/Src/main.c ****   }
 819              		.loc 1 324 5 view .LVU235
 820 0096 FFF7FEFF 		bl	Error_Handler
 821              	.LVL46:
 822              	.L46:
 823 009a 00BF     		.align	2
 824              	.L45:
 825 009c 00000000 		.word	htim3
 826 00a0 00040040 		.word	1073742848
 827              		.cfi_endproc
 828              	.LFE140:
 830              		.section	.text.SystemClock_Config,"ax",%progbits
 831              		.align	1
 832              		.global	SystemClock_Config
 833              		.syntax unified
 834              		.thumb
 835              		.thumb_func
 837              	SystemClock_Config:
 838              	.LFB138:
 159:Core/Src/main.c ****   RCC_OscInitTypeDef RCC_OscInitStruct = {0};
 839              		.loc 1 159 1 view -0
 840              		.cfi_startproc
 841              		@ args = 0, pretend = 0, frame = 80
 842              		@ frame_needed = 0, uses_anonymous_args = 0
 843 0000 10B5     		push	{r4, lr}
 844              		.cfi_def_cfa_offset 8
 845              		.cfi_offset 4, -8
ARM GAS  C:\Users\nhlan\AppData\Local\Temp\ccrObDJv.s 			page 44


 846              		.cfi_offset 14, -4
 847 0002 94B0     		sub	sp, sp, #80
 848              		.cfi_def_cfa_offset 88
 160:Core/Src/main.c ****   RCC_ClkInitTypeDef RCC_ClkInitStruct = {0};
 849              		.loc 1 160 3 view .LVU237
 160:Core/Src/main.c ****   RCC_ClkInitTypeDef RCC_ClkInitStruct = {0};
 850              		.loc 1 160 22 is_stmt 0 view .LVU238
 851 0004 07AC     		add	r4, sp, #28
 852 0006 3422     		movs	r2, #52
 853 0008 0021     		movs	r1, #0
 854 000a 2046     		mov	r0, r4
 855 000c FFF7FEFF 		bl	memset
 856              	.LVL47:
 161:Core/Src/main.c **** 
 857              		.loc 1 161 3 is_stmt 1 view .LVU239
 161:Core/Src/main.c **** 
 858              		.loc 1 161 22 is_stmt 0 view .LVU240
 859 0010 0023     		movs	r3, #0
 860 0012 0293     		str	r3, [sp, #8]
 861 0014 0393     		str	r3, [sp, #12]
 862 0016 0493     		str	r3, [sp, #16]
 863 0018 0593     		str	r3, [sp, #20]
 864 001a 0693     		str	r3, [sp, #24]
 165:Core/Src/main.c ****   __HAL_PWR_VOLTAGESCALING_CONFIG(PWR_REGULATOR_VOLTAGE_SCALE3);
 865              		.loc 1 165 3 is_stmt 1 view .LVU241
 866              	.LBB11:
 165:Core/Src/main.c ****   __HAL_PWR_VOLTAGESCALING_CONFIG(PWR_REGULATOR_VOLTAGE_SCALE3);
 867              		.loc 1 165 3 view .LVU242
 868 001c 0093     		str	r3, [sp]
 165:Core/Src/main.c ****   __HAL_PWR_VOLTAGESCALING_CONFIG(PWR_REGULATOR_VOLTAGE_SCALE3);
 869              		.loc 1 165 3 view .LVU243
 870 001e 194A     		ldr	r2, .L53
 871 0020 116C     		ldr	r1, [r2, #64]
 872 0022 41F08051 		orr	r1, r1, #268435456
 873 0026 1164     		str	r1, [r2, #64]
 165:Core/Src/main.c ****   __HAL_PWR_VOLTAGESCALING_CONFIG(PWR_REGULATOR_VOLTAGE_SCALE3);
 874              		.loc 1 165 3 view .LVU244
 875 0028 126C     		ldr	r2, [r2, #64]
 876 002a 02F08052 		and	r2, r2, #268435456
 877 002e 0092     		str	r2, [sp]
 165:Core/Src/main.c ****   __HAL_PWR_VOLTAGESCALING_CONFIG(PWR_REGULATOR_VOLTAGE_SCALE3);
 878              		.loc 1 165 3 view .LVU245
 879 0030 009A     		ldr	r2, [sp]
 880              	.LBE11:
 165:Core/Src/main.c ****   __HAL_PWR_VOLTAGESCALING_CONFIG(PWR_REGULATOR_VOLTAGE_SCALE3);
 881              		.loc 1 165 3 view .LVU246
 166:Core/Src/main.c **** 
 882              		.loc 1 166 3 view .LVU247
 883              	.LBB12:
 166:Core/Src/main.c **** 
 884              		.loc 1 166 3 view .LVU248
 885 0032 0193     		str	r3, [sp, #4]
 166:Core/Src/main.c **** 
 886              		.loc 1 166 3 view .LVU249
 887 0034 1449     		ldr	r1, .L53+4
 888 0036 0A68     		ldr	r2, [r1]
 889 0038 22F44042 		bic	r2, r2, #49152
ARM GAS  C:\Users\nhlan\AppData\Local\Temp\ccrObDJv.s 			page 45


 890 003c 42F48042 		orr	r2, r2, #16384
 891 0040 0A60     		str	r2, [r1]
 166:Core/Src/main.c **** 
 892              		.loc 1 166 3 view .LVU250
 893 0042 0A68     		ldr	r2, [r1]
 894 0044 02F44042 		and	r2, r2, #49152
 895 0048 0192     		str	r2, [sp, #4]
 166:Core/Src/main.c **** 
 896              		.loc 1 166 3 view .LVU251
 897 004a 019A     		ldr	r2, [sp, #4]
 898              	.LBE12:
 166:Core/Src/main.c **** 
 899              		.loc 1 166 3 view .LVU252
 171:Core/Src/main.c ****   RCC_OscInitStruct.HSIState = RCC_HSI_ON;
 900              		.loc 1 171 3 view .LVU253
 171:Core/Src/main.c ****   RCC_OscInitStruct.HSIState = RCC_HSI_ON;
 901              		.loc 1 171 36 is_stmt 0 view .LVU254
 902 004c 0222     		movs	r2, #2
 903 004e 0792     		str	r2, [sp, #28]
 172:Core/Src/main.c ****   RCC_OscInitStruct.HSICalibrationValue = RCC_HSICALIBRATION_DEFAULT;
 904              		.loc 1 172 3 is_stmt 1 view .LVU255
 172:Core/Src/main.c ****   RCC_OscInitStruct.HSICalibrationValue = RCC_HSICALIBRATION_DEFAULT;
 905              		.loc 1 172 30 is_stmt 0 view .LVU256
 906 0050 0122     		movs	r2, #1
 907 0052 0A92     		str	r2, [sp, #40]
 173:Core/Src/main.c ****   RCC_OscInitStruct.PLL.PLLState = RCC_PLL_NONE;
 908              		.loc 1 173 3 is_stmt 1 view .LVU257
 173:Core/Src/main.c ****   RCC_OscInitStruct.PLL.PLLState = RCC_PLL_NONE;
 909              		.loc 1 173 41 is_stmt 0 view .LVU258
 910 0054 1022     		movs	r2, #16
 911 0056 0B92     		str	r2, [sp, #44]
 174:Core/Src/main.c ****   if (HAL_RCC_OscConfig(&RCC_OscInitStruct) != HAL_OK)
 912              		.loc 1 174 3 is_stmt 1 view .LVU259
 174:Core/Src/main.c ****   if (HAL_RCC_OscConfig(&RCC_OscInitStruct) != HAL_OK)
 913              		.loc 1 174 34 is_stmt 0 view .LVU260
 914 0058 0D93     		str	r3, [sp, #52]
 175:Core/Src/main.c ****   {
 915              		.loc 1 175 3 is_stmt 1 view .LVU261
 175:Core/Src/main.c ****   {
 916              		.loc 1 175 7 is_stmt 0 view .LVU262
 917 005a 2046     		mov	r0, r4
 918 005c FFF7FEFF 		bl	HAL_RCC_OscConfig
 919              	.LVL48:
 175:Core/Src/main.c ****   {
 920              		.loc 1 175 6 discriminator 1 view .LVU263
 921 0060 60B9     		cbnz	r0, .L51
 182:Core/Src/main.c ****                               |RCC_CLOCKTYPE_PCLK1|RCC_CLOCKTYPE_PCLK2;
 922              		.loc 1 182 3 is_stmt 1 view .LVU264
 182:Core/Src/main.c ****                               |RCC_CLOCKTYPE_PCLK1|RCC_CLOCKTYPE_PCLK2;
 923              		.loc 1 182 31 is_stmt 0 view .LVU265
 924 0062 0F23     		movs	r3, #15
 925 0064 0293     		str	r3, [sp, #8]
 184:Core/Src/main.c ****   RCC_ClkInitStruct.AHBCLKDivider = RCC_SYSCLK_DIV1;
 926              		.loc 1 184 3 is_stmt 1 view .LVU266
 184:Core/Src/main.c ****   RCC_ClkInitStruct.AHBCLKDivider = RCC_SYSCLK_DIV1;
 927              		.loc 1 184 34 is_stmt 0 view .LVU267
 928 0066 0021     		movs	r1, #0
ARM GAS  C:\Users\nhlan\AppData\Local\Temp\ccrObDJv.s 			page 46


 929 0068 0391     		str	r1, [sp, #12]
 185:Core/Src/main.c ****   RCC_ClkInitStruct.APB1CLKDivider = RCC_HCLK_DIV1;
 930              		.loc 1 185 3 is_stmt 1 view .LVU268
 185:Core/Src/main.c ****   RCC_ClkInitStruct.APB1CLKDivider = RCC_HCLK_DIV1;
 931              		.loc 1 185 35 is_stmt 0 view .LVU269
 932 006a 0491     		str	r1, [sp, #16]
 186:Core/Src/main.c ****   RCC_ClkInitStruct.APB2CLKDivider = RCC_HCLK_DIV1;
 933              		.loc 1 186 3 is_stmt 1 view .LVU270
 186:Core/Src/main.c ****   RCC_ClkInitStruct.APB2CLKDivider = RCC_HCLK_DIV1;
 934              		.loc 1 186 36 is_stmt 0 view .LVU271
 935 006c 0591     		str	r1, [sp, #20]
 187:Core/Src/main.c **** 
 936              		.loc 1 187 3 is_stmt 1 view .LVU272
 187:Core/Src/main.c **** 
 937              		.loc 1 187 36 is_stmt 0 view .LVU273
 938 006e 0691     		str	r1, [sp, #24]
 189:Core/Src/main.c ****   {
 939              		.loc 1 189 3 is_stmt 1 view .LVU274
 189:Core/Src/main.c ****   {
 940              		.loc 1 189 7 is_stmt 0 view .LVU275
 941 0070 02A8     		add	r0, sp, #8
 942 0072 FFF7FEFF 		bl	HAL_RCC_ClockConfig
 943              	.LVL49:
 189:Core/Src/main.c ****   {
 944              		.loc 1 189 6 discriminator 1 view .LVU276
 945 0076 18B9     		cbnz	r0, .L52
 193:Core/Src/main.c **** 
 946              		.loc 1 193 1 view .LVU277
 947 0078 14B0     		add	sp, sp, #80
 948              		.cfi_remember_state
 949              		.cfi_def_cfa_offset 8
 950              		@ sp needed
 951 007a 10BD     		pop	{r4, pc}
 952              	.L51:
 953              		.cfi_restore_state
 177:Core/Src/main.c ****   }
 954              		.loc 1 177 5 is_stmt 1 view .LVU278
 955 007c FFF7FEFF 		bl	Error_Handler
 956              	.LVL50:
 957              	.L52:
 191:Core/Src/main.c ****   }
 958              		.loc 1 191 5 view .LVU279
 959 0080 FFF7FEFF 		bl	Error_Handler
 960              	.LVL51:
 961              	.L54:
 962              		.align	2
 963              	.L53:
 964 0084 00380240 		.word	1073887232
 965 0088 00700040 		.word	1073770496
 966              		.cfi_endproc
 967              	.LFE138:
 969              		.section	.rodata.main.str1.4,"aMS",%progbits,1
 970              		.align	2
 971              	.LC1:
 972 0000 57617665 		.ascii	"Waveform: \000"
 972      666F726D 
 972      3A2000
ARM GAS  C:\Users\nhlan\AppData\Local\Temp\ccrObDJv.s 			page 47


 973 000b 00       		.align	2
 974              	.LC2:
 975 000c 53696E65 		.ascii	"Sine\000"
 975      00
 976              		.section	.text.main,"ax",%progbits
 977              		.align	1
 978              		.global	main
 979              		.syntax unified
 980              		.thumb
 981              		.thumb_func
 983              	main:
 984              	.LFB137:
  92:Core/Src/main.c **** 
 985              		.loc 1 92 1 view -0
 986              		.cfi_startproc
 987              		@ Volatile: function does not return.
 988              		@ args = 0, pretend = 0, frame = 0
 989              		@ frame_needed = 0, uses_anonymous_args = 0
 990 0000 08B5     		push	{r3, lr}
 991              		.cfi_def_cfa_offset 8
 992              		.cfi_offset 3, -8
 993              		.cfi_offset 14, -4
 101:Core/Src/main.c **** 
 994              		.loc 1 101 3 view .LVU281
 995 0002 FFF7FEFF 		bl	HAL_Init
 996              	.LVL52:
 108:Core/Src/main.c **** 
 997              		.loc 1 108 3 view .LVU282
 998 0006 FFF7FEFF 		bl	SystemClock_Config
 999              	.LVL53:
 115:Core/Src/main.c ****   MX_DMA_Init();
 1000              		.loc 1 115 3 view .LVU283
 1001 000a FFF7FEFF 		bl	MX_GPIO_Init
 1002              	.LVL54:
 116:Core/Src/main.c ****   MX_TIM2_Init();
 1003              		.loc 1 116 3 view .LVU284
 1004 000e FFF7FEFF 		bl	MX_DMA_Init
 1005              	.LVL55:
 117:Core/Src/main.c ****   MX_TIM3_Init();
 1006              		.loc 1 117 3 view .LVU285
 1007 0012 FFF7FEFF 		bl	MX_TIM2_Init
 1008              	.LVL56:
 118:Core/Src/main.c **** 
 1009              		.loc 1 118 3 view .LVU286
 1010 0016 FFF7FEFF 		bl	MX_TIM3_Init
 1011              	.LVL57:
 123:Core/Src/main.c ****   // TODO: Start TIM2 in Output Compare (OC) mode on channel 1
 1012              		.loc 1 123 3 view .LVU287
 1013 001a 0821     		movs	r1, #8
 1014 001c 1348     		ldr	r0, .L58
 1015 001e FFF7FEFF 		bl	HAL_TIM_PWM_Start
 1016              	.LVL58:
 125:Core/Src/main.c ****   // TODO: Start DMA in IT mode on TIM2->CH1. Source is LUT and Dest is TIM3->CCR3; start with Sine
 1017              		.loc 1 125 3 view .LVU288
 1018 0022 134C     		ldr	r4, .L58+4
 1019 0024 0021     		movs	r1, #0
 1020 0026 2046     		mov	r0, r4
ARM GAS  C:\Users\nhlan\AppData\Local\Temp\ccrObDJv.s 			page 48


 1021 0028 FFF7FEFF 		bl	HAL_TIM_OC_Start
 1022              	.LVL59:
 127:Core/Src/main.c **** 
 1023              		.loc 1 127 2 view .LVU289
 1024 002c 4FF48073 		mov	r3, #256
 1025 0030 104A     		ldr	r2, .L58+8
 1026 0032 1268     		ldr	r2, [r2]
 1027 0034 1049     		ldr	r1, .L58+12
 1028 0036 1148     		ldr	r0, .L58+16
 1029 0038 FFF7FEFF 		bl	HAL_DMA_Start_IT
 1030              	.LVL60:
 130:Core/Src/main.c ****   lcd_command(CLEAR);
 1031              		.loc 1 130 2 view .LVU290
 1032 003c FFF7FEFF 		bl	init_LCD
 1033              	.LVL61:
 131:Core/Src/main.c ****   lcd_command(CURSOR_HOME);
 1034              		.loc 1 131 3 view .LVU291
 1035 0040 0120     		movs	r0, #1
 1036 0042 FFF7FEFF 		bl	lcd_command
 1037              	.LVL62:
 132:Core/Src/main.c ****   lcd_putstring("Waveform: ");
 1038              		.loc 1 132 3 view .LVU292
 1039 0046 0220     		movs	r0, #2
 1040 0048 FFF7FEFF 		bl	lcd_command
 1041              	.LVL63:
 133:Core/Src/main.c ****   lcd_command(LINE_TWO);
 1042              		.loc 1 133 3 view .LVU293
 1043 004c 0C48     		ldr	r0, .L58+20
 1044 004e FFF7FEFF 		bl	lcd_putstring
 1045              	.LVL64:
 134:Core/Src/main.c ****   lcd_putstring("Sine");
 1046              		.loc 1 134 3 view .LVU294
 1047 0052 C020     		movs	r0, #192
 1048 0054 FFF7FEFF 		bl	lcd_command
 1049              	.LVL65:
 135:Core/Src/main.c **** 
 1050              		.loc 1 135 3 view .LVU295
 1051 0058 0A48     		ldr	r0, .L58+24
 1052 005a FFF7FEFF 		bl	lcd_putstring
 1053              	.LVL66:
 139:Core/Src/main.c **** 
 1054              		.loc 1 139 1 view .LVU296
 1055 005e 2268     		ldr	r2, [r4]
 1056 0060 D368     		ldr	r3, [r2, #12]
 1057 0062 43F40073 		orr	r3, r3, #512
 1058 0066 D360     		str	r3, [r2, #12]
 1059              	.L56:
 145:Core/Src/main.c ****   {
 1060              		.loc 1 145 3 view .LVU297
 150:Core/Src/main.c ****   /* USER CODE END 3 */
 1061              		.loc 1 150 3 view .LVU298
 145:Core/Src/main.c ****   {
 1062              		.loc 1 145 9 view .LVU299
 1063 0068 FEE7     		b	.L56
 1064              	.L59:
 1065 006a 00BF     		.align	2
 1066              	.L58:
ARM GAS  C:\Users\nhlan\AppData\Local\Temp\ccrObDJv.s 			page 49


 1067 006c 00000000 		.word	htim3
 1068 0070 00000000 		.word	htim2
 1069 0074 00000000 		.word	DestAddress
 1070 0078 00000000 		.word	Sin_LUT
 1071 007c 00000000 		.word	hdma_tim2_ch1
 1072 0080 00000000 		.word	.LC1
 1073 0084 0C000000 		.word	.LC2
 1074              		.cfi_endproc
 1075              	.LFE137:
 1077              		.global	waveNames
 1078              		.section	.rodata.str1.4,"aMS",%progbits,1
 1079              		.align	2
 1080              	.LC3:
 1081 0000 53617774 		.ascii	"Sawtooth\000"
 1081      6F6F7468 
 1081      00
 1082 0009 000000   		.align	2
 1083              	.LC4:
 1084 000c 54726961 		.ascii	"Triangle\000"
 1084      6E676C65 
 1084      00
 1085 0015 000000   		.align	2
 1086              	.LC5:
 1087 0018 5069616E 		.ascii	"Piano\000"
 1087      6F00
 1088 001e 0000     		.align	2
 1089              	.LC6:
 1090 0020 47756974 		.ascii	"Guitar\000"
 1090      617200
 1091 0027 00       		.align	2
 1092              	.LC7:
 1093 0028 4472756D 		.ascii	"Drum\000"
 1093      00
 1094              		.section	.data.waveNames,"aw"
 1095              		.align	2
 1098              	waveNames:
 1099 0000 0C000000 		.word	.LC2
 1100 0004 00000000 		.word	.LC3
 1101 0008 0C000000 		.word	.LC4
 1102 000c 18000000 		.word	.LC5
 1103 0010 20000000 		.word	.LC6
 1104 0014 28000000 		.word	.LC7
 1105              		.global	waveforms
 1106              		.section	.data.waveforms,"aw"
 1107              		.align	2
 1110              	waveforms:
 1111 0000 00000000 		.word	Sin_LUT
 1112 0004 00000000 		.word	Saw_LUT
 1113 0008 00000000 		.word	Triangle_LUT
 1114 000c 00000000 		.word	Piano_LUT
 1115 0010 00000000 		.word	Guitar_LUT
 1116 0014 00000000 		.word	Drum_LUT
 1117              		.global	currentWave
 1118              		.section	.bss.currentWave,"aw",%nobits
 1121              	currentWave:
 1122 0000 00       		.space	1
 1123              		.global	lastDebounceTick
ARM GAS  C:\Users\nhlan\AppData\Local\Temp\ccrObDJv.s 			page 50


 1124              		.section	.bss.lastDebounceTick,"aw",%nobits
 1125              		.align	2
 1128              	lastDebounceTick:
 1129 0000 00000000 		.space	4
 1130              		.global	DestAddress
 1131              		.section	.data.DestAddress,"aw"
 1132              		.align	2
 1135              	DestAddress:
 1136 0000 3C040040 		.word	1073742908
 1137              		.global	TIM2_Ticks
 1138              		.section	.data.TIM2_Ticks,"aw"
 1139              		.align	2
 1142              	TIM2_Ticks:
 1143 0000 127A0000 		.word	31250
 1144              		.global	Drum_LUT
 1145              		.section	.data.Drum_LUT,"aw"
 1146              		.align	2
 1149              	Drum_LUT:
 1150 0000 FF070000 		.word	2047
 1151 0004 04080000 		.word	2052
 1152 0008 BF010000 		.word	447
 1153 000c F10F0000 		.word	4081
 1154 0010 810D0000 		.word	3457
 1155 0014 A6080000 		.word	2214
 1156 0018 EA080000 		.word	2282
 1157 001c CC070000 		.word	1996
 1158 0020 4A070000 		.word	1866
 1159 0024 B2050000 		.word	1458
 1160 0028 A7060000 		.word	1703
 1161 002c F5080000 		.word	2293
 1162 0030 A2080000 		.word	2210
 1163 0034 CC070000 		.word	1996
 1164 0038 CD070000 		.word	1997
 1165 003c E3070000 		.word	2019
 1166 0040 F2070000 		.word	2034
 1167 0044 C7070000 		.word	1991
 1168 0048 F10F0000 		.word	4081
 1169 004c 280F0000 		.word	3880
 1170 0050 750C0000 		.word	3189
 1171 0054 28080000 		.word	2088
 1172 0058 AE0A0000 		.word	2734
 1173 005c 6E090000 		.word	2414
 1174 0060 64070000 		.word	1892
 1175 0064 3B060000 		.word	1595
 1176 0068 5B070000 		.word	1883
 1177 006c BB080000 		.word	2235
 1178 0070 2D080000 		.word	2093
 1179 0074 95070000 		.word	1941
 1180 0078 09080000 		.word	2057
 1181 007c 00080000 		.word	2048
 1182 0080 0E080000 		.word	2062
 1183 0084 9A060000 		.word	1690
 1184 0088 9B090000 		.word	2459
 1185 008c 95070000 		.word	1941
 1186 0090 3E0A0000 		.word	2622
 1187 0094 08080000 		.word	2056
 1188 0098 14070000 		.word	1812
ARM GAS  C:\Users\nhlan\AppData\Local\Temp\ccrObDJv.s 			page 51


 1189 009c 71080000 		.word	2161
 1190 00a0 DD070000 		.word	2013
 1191 00a4 EC070000 		.word	2028
 1192 00a8 EF070000 		.word	2031
 1193 00ac 25080000 		.word	2085
 1194 00b0 EA070000 		.word	2026
 1195 00b4 09080000 		.word	2057
 1196 00b8 0D080000 		.word	2061
 1197 00bc FD070000 		.word	2045
 1198 00c0 FC070000 		.word	2044
 1199 00c4 FF0F0000 		.word	4095
 1200 00c8 4B070000 		.word	1867
 1201 00cc C7020000 		.word	711
 1202 00d0 4C060000 		.word	1612
 1203 00d4 CB060000 		.word	1739
 1204 00d8 A6050000 		.word	1446
 1205 00dc C3060000 		.word	1731
 1206 00e0 10090000 		.word	2320
 1207 00e4 8E070000 		.word	1934
 1208 00e8 42070000 		.word	1858
 1209 00ec 33090000 		.word	2355
 1210 00f0 88080000 		.word	2184
 1211 00f4 D6070000 		.word	2006
 1212 00f8 FE070000 		.word	2046
 1213 00fc C1070000 		.word	1985
 1214 0100 C2070000 		.word	1986
 1215 0104 46080000 		.word	2118
 1216 0108 B1080000 		.word	2225
 1217 010c AE090000 		.word	2478
 1218 0110 3F080000 		.word	2111
 1219 0114 E5070000 		.word	2021
 1220 0118 FC070000 		.word	2044
 1221 011c F1070000 		.word	2033
 1222 0120 00080000 		.word	2048
 1223 0124 D6070000 		.word	2006
 1224 0128 1E080000 		.word	2078
 1225 012c 0B080000 		.word	2059
 1226 0130 FF070000 		.word	2047
 1227 0134 00080000 		.word	2048
 1228 0138 04080000 		.word	2052
 1229 013c 01080000 		.word	2049
 1230 0140 00080000 		.word	2048
 1231 0144 F1070000 		.word	2033
 1232 0148 59080000 		.word	2137
 1233 014c 3D080000 		.word	2109
 1234 0150 B7070000 		.word	1975
 1235 0154 2F080000 		.word	2095
 1236 0158 0D080000 		.word	2061
 1237 015c 02080000 		.word	2050
 1238 0160 FE070000 		.word	2046
 1239 0164 00080000 		.word	2048
 1240 0168 E8070000 		.word	2024
 1241 016c 11080000 		.word	2065
 1242 0170 2D080000 		.word	2093
 1243 0174 24080000 		.word	2084
 1244 0178 FE070000 		.word	2046
 1245 017c FE070000 		.word	2046
ARM GAS  C:\Users\nhlan\AppData\Local\Temp\ccrObDJv.s 			page 52


 1246 0180 04080000 		.word	2052
 1247 0184 F60F0000 		.word	4086
 1248 0188 E5020000 		.word	741
 1249 018c E6080000 		.word	2278
 1250 0190 72040000 		.word	1138
 1251 0194 CA090000 		.word	2506
 1252 0198 E8070000 		.word	2024
 1253 019c CD070000 		.word	1997
 1254 01a0 2E080000 		.word	2094
 1255 01a4 F7070000 		.word	2039
 1256 01a8 F3070000 		.word	2035
 1257 01ac FB070000 		.word	2043
 1258 01b0 26080000 		.word	2086
 1259 01b4 F4070000 		.word	2036
 1260 01b8 01080000 		.word	2049
 1261 01bc E8070000 		.word	2024
 1262 01c0 FC070000 		.word	2044
 1263 01c4 2E080000 		.word	2094
 1264 01c8 34080000 		.word	2100
 1265 01cc 00080000 		.word	2048
 1266 01d0 00080000 		.word	2048
 1267 01d4 F2070000 		.word	2034
 1268 01d8 FB070000 		.word	2043
 1269 01dc 01080000 		.word	2049
 1270 01e0 01080000 		.word	2049
 1271 01e4 F70F0000 		.word	4087
 1272 01e8 FF0F0000 		.word	4095
 1273 01ec E90F0000 		.word	4073
 1274 01f0 A4070000 		.word	1956
 1275 01f4 E9050000 		.word	1513
 1276 01f8 58080000 		.word	2136
 1277 01fc 3A070000 		.word	1850
 1278 0200 93060000 		.word	1683
 1279 0204 3A000000 		.word	58
 1280 0208 E6050000 		.word	1510
 1281 020c 7B0A0000 		.word	2683
 1282 0210 34090000 		.word	2356
 1283 0214 4D040000 		.word	1101
 1284 0218 1A050000 		.word	1306
 1285 021c E9070000 		.word	2025
 1286 0220 39090000 		.word	2361
 1287 0224 52080000 		.word	2130
 1288 0228 5E070000 		.word	1886
 1289 022c 6C080000 		.word	2156
 1290 0230 84080000 		.word	2180
 1291 0234 D2070000 		.word	2002
 1292 0238 D1070000 		.word	2001
 1293 023c BC070000 		.word	1980
 1294 0240 FD070000 		.word	2045
 1295 0244 16080000 		.word	2070
 1296 0248 FD070000 		.word	2045
 1297 024c 8F080000 		.word	2191
 1298 0250 0C080000 		.word	2060
 1299 0254 19080000 		.word	2073
 1300 0258 0F080000 		.word	2063
 1301 025c F1070000 		.word	2033
 1302 0260 F2070000 		.word	2034
ARM GAS  C:\Users\nhlan\AppData\Local\Temp\ccrObDJv.s 			page 53


 1303 0264 F9070000 		.word	2041
 1304 0268 04080000 		.word	2052
 1305 026c 0C080000 		.word	2060
 1306 0270 C8070000 		.word	1992
 1307 0274 FF070000 		.word	2047
 1308 0278 01080000 		.word	2049
 1309 027c FA070000 		.word	2042
 1310 0280 04080000 		.word	2052
 1311 0284 F3060000 		.word	1779
 1312 0288 BD060000 		.word	1725
 1313 028c 62070000 		.word	1890
 1314 0290 D2080000 		.word	2258
 1315 0294 0F070000 		.word	1807
 1316 0298 88080000 		.word	2184
 1317 029c D6070000 		.word	2006
 1318 02a0 FC070000 		.word	2044
 1319 02a4 F6070000 		.word	2038
 1320 02a8 07080000 		.word	2055
 1321 02ac F6070000 		.word	2038
 1322 02b0 0B080000 		.word	2059
 1323 02b4 08080000 		.word	2056
 1324 02b8 07080000 		.word	2055
 1325 02bc FF070000 		.word	2047
 1326 02c0 EB070000 		.word	2027
 1327 02c4 4E090000 		.word	2382
 1328 02c8 A3070000 		.word	1955
 1329 02cc 16030000 		.word	790
 1330 02d0 61080000 		.word	2145
 1331 02d4 83090000 		.word	2435
 1332 02d8 93080000 		.word	2195
 1333 02dc E2090000 		.word	2530
 1334 02e0 5E090000 		.word	2398
 1335 02e4 59070000 		.word	1881
 1336 02e8 E6050000 		.word	1510
 1337 02ec F1070000 		.word	2033
 1338 02f0 95080000 		.word	2197
 1339 02f4 F9070000 		.word	2041
 1340 02f8 16080000 		.word	2070
 1341 02fc E9070000 		.word	2025
 1342 0300 45080000 		.word	2117
 1343 0304 57070000 		.word	1879
 1344 0308 D6070000 		.word	2006
 1345 030c 0B080000 		.word	2059
 1346 0310 4C080000 		.word	2124
 1347 0314 F9070000 		.word	2041
 1348 0318 E7070000 		.word	2023
 1349 031c 02080000 		.word	2050
 1350 0320 47080000 		.word	2119
 1351 0324 E2070000 		.word	2018
 1352 0328 04080000 		.word	2052
 1353 032c F1070000 		.word	2033
 1354 0330 FB070000 		.word	2043
 1355 0334 02080000 		.word	2050
 1356 0338 09080000 		.word	2057
 1357 033c FB070000 		.word	2043
 1358 0340 DE070000 		.word	2014
 1359 0344 8E040000 		.word	1166
ARM GAS  C:\Users\nhlan\AppData\Local\Temp\ccrObDJv.s 			page 54


 1360 0348 A4090000 		.word	2468
 1361 034c F60D0000 		.word	3574
 1362 0350 60090000 		.word	2400
 1363 0354 1A0A0000 		.word	2586
 1364 0358 930A0000 		.word	2707
 1365 035c 50070000 		.word	1872
 1366 0360 3B070000 		.word	1851
 1367 0364 6F080000 		.word	2159
 1368 0368 22080000 		.word	2082
 1369 036c C6070000 		.word	1990
 1370 0370 C2070000 		.word	1986
 1371 0374 4D080000 		.word	2125
 1372 0378 21080000 		.word	2081
 1373 037c 29080000 		.word	2089
 1374 0380 FF0F0000 		.word	4095
 1375 0384 94030000 		.word	916
 1376 0388 CC060000 		.word	1740
 1377 038c 7C060000 		.word	1660
 1378 0390 38080000 		.word	2104
 1379 0394 98080000 		.word	2200
 1380 0398 A2070000 		.word	1954
 1381 039c 2E080000 		.word	2094
 1382 03a0 02080000 		.word	2050
 1383 03a4 CE070000 		.word	1998
 1384 03a8 09080000 		.word	2057
 1385 03ac 0C080000 		.word	2060
 1386 03b0 F9070000 		.word	2041
 1387 03b4 10080000 		.word	2064
 1388 03b8 0A080000 		.word	2058
 1389 03bc 20080000 		.word	2080
 1390 03c0 0E080000 		.word	2062
 1391 03c4 7A070000 		.word	1914
 1392 03c8 B1070000 		.word	1969
 1393 03cc 03080000 		.word	2051
 1394 03d0 E8070000 		.word	2024
 1395 03d4 EE070000 		.word	2030
 1396 03d8 06080000 		.word	2054
 1397 03dc FE070000 		.word	2046
 1398 03e0 F10E0000 		.word	3825
 1399 03e4 EE050000 		.word	1518
 1400 03e8 C7050000 		.word	1479
 1401 03ec B7050000 		.word	1463
 1402 03f0 08050000 		.word	1288
 1403 03f4 8E040000 		.word	1166
 1404 03f8 5D080000 		.word	2141
 1405 03fc C3070000 		.word	1987
 1406 0400 1D060000 		.word	1565
 1407 0404 95010000 		.word	405
 1408 0408 00000000 		.word	0
 1409 040c 1B030000 		.word	795
 1410 0410 D2080000 		.word	2258
 1411 0414 DD080000 		.word	2269
 1412 0418 84070000 		.word	1924
 1413 041c 9F080000 		.word	2207
 1414 0420 9B090000 		.word	2459
 1415 0424 1C080000 		.word	2076
 1416 0428 08070000 		.word	1800
ARM GAS  C:\Users\nhlan\AppData\Local\Temp\ccrObDJv.s 			page 55


 1417 042c 78070000 		.word	1912
 1418 0430 51080000 		.word	2129
 1419 0434 1A080000 		.word	2074
 1420 0438 33080000 		.word	2099
 1421 043c 02080000 		.word	2050
 1422 0440 360C0000 		.word	3126
 1423 0444 BF060000 		.word	1727
 1424 0448 00000000 		.word	0
 1425 044c 55060000 		.word	1621
 1426 0450 CD070000 		.word	1997
 1427 0454 D0060000 		.word	1744
 1428 0458 27070000 		.word	1831
 1429 045c 70090000 		.word	2416
 1430 0460 50090000 		.word	2384
 1431 0464 A0070000 		.word	1952
 1432 0468 65070000 		.word	1893
 1433 046c ED070000 		.word	2029
 1434 0470 38080000 		.word	2104
 1435 0474 05080000 		.word	2053
 1436 0478 04080000 		.word	2052
 1437 047c F6070000 		.word	2038
 1438 0480 16000000 		.word	22
 1439 0484 980B0000 		.word	2968
 1440 0488 40090000 		.word	2368
 1441 048c F2080000 		.word	2290
 1442 0490 90060000 		.word	1680
 1443 0494 7C080000 		.word	2172
 1444 0498 D0070000 		.word	2000
 1445 049c 3D080000 		.word	2109
 1446 04a0 F7070000 		.word	2039
 1447 04a4 FD070000 		.word	2045
 1448 04a8 F8070000 		.word	2040
 1449 04ac FE070000 		.word	2046
 1450 04b0 FD070000 		.word	2045
 1451 04b4 FA070000 		.word	2042
 1452 04b8 FF070000 		.word	2047
 1453 04bc FF070000 		.word	2047
 1454 04c0 D60F0000 		.word	4054
 1455 04c4 FF0F0000 		.word	4095
 1456 04c8 410B0000 		.word	2881
 1457 04cc 17090000 		.word	2327
 1458 04d0 920C0000 		.word	3218
 1459 04d4 F0080000 		.word	2288
 1460 04d8 05070000 		.word	1797
 1461 04dc 77070000 		.word	1911
 1462 04e0 42080000 		.word	2114
 1463 04e4 66080000 		.word	2150
 1464 04e8 5B070000 		.word	1883
 1465 04ec 71070000 		.word	1905
 1466 04f0 2C080000 		.word	2092
 1467 04f4 34080000 		.word	2100
 1468 04f8 5F080000 		.word	2143
 1469 04fc E6070000 		.word	2022
 1470 0500 9C070000 		.word	1948
 1471 0504 B4070000 		.word	1972
 1472 0508 C5080000 		.word	2245
 1473 050c 1A080000 		.word	2074
ARM GAS  C:\Users\nhlan\AppData\Local\Temp\ccrObDJv.s 			page 56


 1474 0510 E7070000 		.word	2023
 1475 0514 05080000 		.word	2053
 1476 0518 0E080000 		.word	2062
 1477 051c DF070000 		.word	2015
 1478 0520 F5070000 		.word	2037
 1479 0524 FB070000 		.word	2043
 1480 0528 01080000 		.word	2049
 1481 052c 07080000 		.word	2055
 1482 0530 03080000 		.word	2051
 1483 0534 FE070000 		.word	2046
 1484 0538 01080000 		.word	2049
 1485 053c 00080000 		.word	2048
 1486 0540 B4070000 		.word	1972
 1487 0544 85080000 		.word	2181
 1488 0548 AF070000 		.word	1967
 1489 054c A3070000 		.word	1955
 1490 0550 B4070000 		.word	1972
 1491 0554 F1070000 		.word	2033
 1492 0558 FD070000 		.word	2045
 1493 055c 06080000 		.word	2054
 1494 0560 45080000 		.word	2117
 1495 0564 03080000 		.word	2051
 1496 0568 E5070000 		.word	2021
 1497 056c 0A080000 		.word	2058
 1498 0570 F6070000 		.word	2038
 1499 0574 01080000 		.word	2049
 1500 0578 FE070000 		.word	2046
 1501 057c C2070000 		.word	1986
 1502 0580 AD050000 		.word	1453
 1503 0584 EF080000 		.word	2287
 1504 0588 32070000 		.word	1842
 1505 058c 07080000 		.word	2055
 1506 0590 AA080000 		.word	2218
 1507 0594 A6070000 		.word	1958
 1508 0598 2D080000 		.word	2093
 1509 059c DF070000 		.word	2015
 1510 05a0 E4070000 		.word	2020
 1511 05a4 EE070000 		.word	2030
 1512 05a8 03080000 		.word	2051
 1513 05ac F4070000 		.word	2036
 1514 05b0 FF070000 		.word	2047
 1515 05b4 0A080000 		.word	2058
 1516 05b8 0D080000 		.word	2061
 1517 05bc 2D070000 		.word	1837
 1518 05c0 B1080000 		.word	2225
 1519 05c4 DE070000 		.word	2014
 1520 05c8 DC070000 		.word	2012
 1521 05cc 72080000 		.word	2162
 1522 05d0 F2070000 		.word	2034
 1523 05d4 09080000 		.word	2057
 1524 05d8 F6070000 		.word	2038
 1525 05dc 94090000 		.word	2452
 1526 05e0 5D010000 		.word	349
 1527 05e4 00000000 		.word	0
 1528 05e8 86040000 		.word	1158
 1529 05ec C9090000 		.word	2505
 1530 05f0 810A0000 		.word	2689
ARM GAS  C:\Users\nhlan\AppData\Local\Temp\ccrObDJv.s 			page 57


 1531 05f4 B7070000 		.word	1975
 1532 05f8 89090000 		.word	2441
 1533 05fc 37080000 		.word	2103
 1534 0600 DB020000 		.word	731
 1535 0604 55090000 		.word	2389
 1536 0608 850D0000 		.word	3461
 1537 060c 5C090000 		.word	2396
 1538 0610 F7090000 		.word	2551
 1539 0614 860A0000 		.word	2694
 1540 0618 53070000 		.word	1875
 1541 061c 59070000 		.word	1881
 1542 0620 82080000 		.word	2178
 1543 0624 1F080000 		.word	2079
 1544 0628 BA070000 		.word	1978
 1545 062c D0070000 		.word	2000
 1546 0630 4F080000 		.word	2127
 1547 0634 25080000 		.word	2085
 1548 0638 28080000 		.word	2088
 1549 063c 85080000 		.word	2181
 1550 0640 40070000 		.word	1856
 1551 0644 B1070000 		.word	1969
 1552 0648 3E080000 		.word	2110
 1553 064c F0070000 		.word	2032
 1554 0650 F2070000 		.word	2034
 1555 0654 FF070000 		.word	2047
 1556 0658 13080000 		.word	2067
 1557 065c 16080000 		.word	2070
 1558 0660 EE070000 		.word	2030
 1559 0664 0F080000 		.word	2063
 1560 0668 24080000 		.word	2084
 1561 066c 30080000 		.word	2096
 1562 0670 FD070000 		.word	2045
 1563 0674 00080000 		.word	2048
 1564 0678 FF070000 		.word	2047
 1565 067c 9E000000 		.word	158
 1566 0680 E30A0000 		.word	2787
 1567 0684 4F070000 		.word	1871
 1568 0688 DB0A0000 		.word	2779
 1569 068c 2A070000 		.word	1834
 1570 0690 05080000 		.word	2053
 1571 0694 F4070000 		.word	2036
 1572 0698 03080000 		.word	2051
 1573 069c F5070000 		.word	2037
 1574 06a0 0D080000 		.word	2061
 1575 06a4 24080000 		.word	2084
 1576 06a8 EA070000 		.word	2026
 1577 06ac 03080000 		.word	2051
 1578 06b0 FC070000 		.word	2044
 1579 06b4 11080000 		.word	2065
 1580 06b8 FC070000 		.word	2044
 1581 06bc FA0F0000 		.word	4090
 1582 06c0 BF080000 		.word	2239
 1583 06c4 E10A0000 		.word	2785
 1584 06c8 48090000 		.word	2376
 1585 06cc 1E060000 		.word	1566
 1586 06d0 4C050000 		.word	1356
 1587 06d4 21080000 		.word	2081
ARM GAS  C:\Users\nhlan\AppData\Local\Temp\ccrObDJv.s 			page 58


 1588 06d8 E0060000 		.word	1760
 1589 06dc BC070000 		.word	1980
 1590 06e0 19090000 		.word	2329
 1591 06e4 AA080000 		.word	2218
 1592 06e8 0A080000 		.word	2058
 1593 06ec BB070000 		.word	1979
 1594 06f0 21080000 		.word	2081
 1595 06f4 11080000 		.word	2065
 1596 06f8 E4070000 		.word	2020
 1597 06fc DC080000 		.word	2268
 1598 0700 35080000 		.word	2101
 1599 0704 4E080000 		.word	2126
 1600 0708 23080000 		.word	2083
 1601 070c F7070000 		.word	2039
 1602 0710 00080000 		.word	2048
 1603 0714 0C080000 		.word	2060
 1604 0718 06080000 		.word	2054
 1605 071c DE070000 		.word	2014
 1606 0720 EF070000 		.word	2031
 1607 0724 FB070000 		.word	2043
 1608 0728 04080000 		.word	2052
 1609 072c 00080000 		.word	2048
 1610 0730 F6070000 		.word	2038
 1611 0734 05080000 		.word	2053
 1612 0738 06080000 		.word	2054
 1613 073c AE010000 		.word	430
 1614 0740 B0060000 		.word	1712
 1615 0744 79070000 		.word	1913
 1616 0748 87080000 		.word	2183
 1617 074c DC040000 		.word	1244
 1618 0750 AB050000 		.word	1451
 1619 0754 85070000 		.word	1925
 1620 0758 A6090000 		.word	2470
 1621 075c 09090000 		.word	2313
 1622 0760 5F070000 		.word	1887
 1623 0764 FA070000 		.word	2042
 1624 0768 60080000 		.word	2144
 1625 076c 01080000 		.word	2049
 1626 0770 E4070000 		.word	2020
 1627 0774 CF070000 		.word	1999
 1628 0778 EF070000 		.word	2031
 1629 077c 84050000 		.word	1412
 1630 0780 020A0000 		.word	2562
 1631 0784 510A0000 		.word	2641
 1632 0788 85070000 		.word	1925
 1633 078c 8E080000 		.word	2190
 1634 0790 64070000 		.word	1892
 1635 0794 5B080000 		.word	2139
 1636 0798 DE070000 		.word	2014
 1637 079c 34080000 		.word	2100
 1638 07a0 E0070000 		.word	2016
 1639 07a4 04080000 		.word	2052
 1640 07a8 F1070000 		.word	2033
 1641 07ac 08080000 		.word	2056
 1642 07b0 ED070000 		.word	2029
 1643 07b4 F0070000 		.word	2032
 1644 07b8 00080000 		.word	2048
ARM GAS  C:\Users\nhlan\AppData\Local\Temp\ccrObDJv.s 			page 59


 1645 07bc 34090000 		.word	2356
 1646 07c0 A8080000 		.word	2216
 1647 07c4 BE070000 		.word	1982
 1648 07c8 A5070000 		.word	1957
 1649 07cc 2E080000 		.word	2094
 1650 07d0 0C080000 		.word	2060
 1651 07d4 FA070000 		.word	2042
 1652 07d8 B0070000 		.word	1968
 1653 07dc B2010000 		.word	434
 1654 07e0 600B0000 		.word	2912
 1655 07e4 C10B0000 		.word	3009
 1656 07e8 B00A0000 		.word	2736
 1657 07ec 680A0000 		.word	2664
 1658 07f0 74090000 		.word	2420
 1659 07f4 55070000 		.word	1877
 1660 07f8 7F080000 		.word	2175
 1661 07fc FF070000 		.word	2047
 1662              		.global	Guitar_LUT
 1663              		.section	.data.Guitar_LUT,"aw"
 1664              		.align	2
 1667              	Guitar_LUT:
 1668 0000 B2070000 		.word	1970
 1669 0004 B2070000 		.word	1970
 1670 0008 96080000 		.word	2198
 1671 000c 3A080000 		.word	2106
 1672 0010 3F080000 		.word	2111
 1673 0014 BA050000 		.word	1466
 1674 0018 26080000 		.word	2086
 1675 001c 04090000 		.word	2308
 1676 0020 A5070000 		.word	1957
 1677 0024 D9070000 		.word	2009
 1678 0028 4B080000 		.word	2123
 1679 002c A6060000 		.word	1702
 1680 0030 C4060000 		.word	1732
 1681 0034 82080000 		.word	2178
 1682 0038 BD070000 		.word	1981
 1683 003c A1070000 		.word	1953
 1684 0040 BA080000 		.word	2234
 1685 0044 5A070000 		.word	1882
 1686 0048 93060000 		.word	1683
 1687 004c CE070000 		.word	1998
 1688 0050 C0070000 		.word	1984
 1689 0054 D0070000 		.word	2000
 1690 0058 99080000 		.word	2201
 1691 005c 7D080000 		.word	2173
 1692 0060 1D070000 		.word	1821
 1693 0064 EB060000 		.word	1771
 1694 0068 B0070000 		.word	1968
 1695 006c 020C0000 		.word	3074
 1696 0070 73050000 		.word	1395
 1697 0074 C1040000 		.word	1217
 1698 0078 FB090000 		.word	2555
 1699 007c C5080000 		.word	2245
 1700 0080 7A060000 		.word	1658
 1701 0084 1C050000 		.word	1308
 1702 0088 2B080000 		.word	2091
 1703 008c 2C080000 		.word	2092
ARM GAS  C:\Users\nhlan\AppData\Local\Temp\ccrObDJv.s 			page 60


 1704 0090 AE070000 		.word	1966
 1705 0094 B4070000 		.word	1972
 1706 0098 65070000 		.word	1893
 1707 009c 86070000 		.word	1926
 1708 00a0 E3070000 		.word	2019
 1709 00a4 DB070000 		.word	2011
 1710 00a8 AB070000 		.word	1963
 1711 00ac BC070000 		.word	1980
 1712 00b0 A5070000 		.word	1957
 1713 00b4 98070000 		.word	1944
 1714 00b8 9E070000 		.word	1950
 1715 00bc BE070000 		.word	1982
 1716 00c0 A0070000 		.word	1952
 1717 00c4 B4070000 		.word	1972
 1718 00c8 8A080000 		.word	2186
 1719 00cc D0060000 		.word	1744
 1720 00d0 62070000 		.word	1890
 1721 00d4 C9060000 		.word	1737
 1722 00d8 EA070000 		.word	2026
 1723 00dc 66080000 		.word	2150
 1724 00e0 2C080000 		.word	2092
 1725 00e4 2D070000 		.word	1837
 1726 00e8 9A070000 		.word	1946
 1727 00ec B4070000 		.word	1972
 1728 00f0 C4070000 		.word	1988
 1729 00f4 BC070000 		.word	1980
 1730 00f8 A9070000 		.word	1961
 1731 00fc A1070000 		.word	1953
 1732 0100 B1070000 		.word	1969
 1733 0104 A3070000 		.word	1955
 1734 0108 D4080000 		.word	2260
 1735 010c FE060000 		.word	1790
 1736 0110 BA050000 		.word	1466
 1737 0114 110A0000 		.word	2577
 1738 0118 E9070000 		.word	2025
 1739 011c 0B070000 		.word	1803
 1740 0120 0A080000 		.word	2058
 1741 0124 7B080000 		.word	2171
 1742 0128 BB060000 		.word	1723
 1743 012c F2060000 		.word	1778
 1744 0130 01090000 		.word	2305
 1745 0134 D1060000 		.word	1745
 1746 0138 C0060000 		.word	1728
 1747 013c 6D090000 		.word	2413
 1748 0140 60070000 		.word	1888
 1749 0144 A6060000 		.word	1702
 1750 0148 27090000 		.word	2343
 1751 014c ED060000 		.word	1773
 1752 0150 7F060000 		.word	1663
 1753 0154 77080000 		.word	2167
 1754 0158 89070000 		.word	1929
 1755 015c 2F070000 		.word	1839
 1756 0160 B6070000 		.word	1974
 1757 0164 07080000 		.word	2055
 1758 0168 B5070000 		.word	1973
 1759 016c 85030000 		.word	901
 1760 0170 9C0B0000 		.word	2972
ARM GAS  C:\Users\nhlan\AppData\Local\Temp\ccrObDJv.s 			page 61


 1761 0174 59080000 		.word	2137
 1762 0178 A5080000 		.word	2213
 1763 017c A1080000 		.word	2209
 1764 0180 3A060000 		.word	1594
 1765 0184 0F070000 		.word	1807
 1766 0188 E1070000 		.word	2017
 1767 018c D8070000 		.word	2008
 1768 0190 6A070000 		.word	1898
 1769 0194 B5070000 		.word	1973
 1770 0198 A8070000 		.word	1960
 1771 019c 8C070000 		.word	1932
 1772 01a0 DC070000 		.word	2012
 1773 01a4 BF070000 		.word	1983
 1774 01a8 AD070000 		.word	1965
 1775 01ac B4070000 		.word	1972
 1776 01b0 B5070000 		.word	1973
 1777 01b4 B4070000 		.word	1972
 1778 01b8 B6070000 		.word	1974
 1779 01bc AA070000 		.word	1962
 1780 01c0 AD070000 		.word	1965
 1781 01c4 7E070000 		.word	1918
 1782 01c8 58080000 		.word	2136
 1783 01cc 9E060000 		.word	1694
 1784 01d0 28070000 		.word	1832
 1785 01d4 BE070000 		.word	1982
 1786 01d8 95070000 		.word	1941
 1787 01dc 57080000 		.word	2135
 1788 01e0 DB070000 		.word	2011
 1789 01e4 D5070000 		.word	2005
 1790 01e8 47070000 		.word	1863
 1791 01ec 4C070000 		.word	1868
 1792 01f0 C5070000 		.word	1989
 1793 01f4 AF070000 		.word	1967
 1794 01f8 B3070000 		.word	1971
 1795 01fc AC070000 		.word	1964
 1796 0200 B1070000 		.word	1969
 1797 0204 A5070000 		.word	1957
 1798 0208 C7080000 		.word	2247
 1799 020c EC060000 		.word	1772
 1800 0210 AF070000 		.word	1967
 1801 0214 CB070000 		.word	1995
 1802 0218 F1070000 		.word	2033
 1803 021c 64080000 		.word	2148
 1804 0220 D5070000 		.word	2005
 1805 0224 FF060000 		.word	1791
 1806 0228 5C070000 		.word	1884
 1807 022c D9070000 		.word	2009
 1808 0230 13080000 		.word	2067
 1809 0234 3A080000 		.word	2106
 1810 0238 B5070000 		.word	1973
 1811 023c 2A070000 		.word	1834
 1812 0240 62070000 		.word	1890
 1813 0244 C4070000 		.word	1988
 1814 0248 12080000 		.word	2066
 1815 024c D7080000 		.word	2263
 1816 0250 0A080000 		.word	2058
 1817 0254 71070000 		.word	1905
ARM GAS  C:\Users\nhlan\AppData\Local\Temp\ccrObDJv.s 			page 62


 1818 0258 F5070000 		.word	2037
 1819 025c D1070000 		.word	2001
 1820 0260 CC070000 		.word	1996
 1821 0264 27080000 		.word	2087
 1822 0268 660B0000 		.word	2918
 1823 026c 24050000 		.word	1316
 1824 0270 60070000 		.word	1888
 1825 0274 94060000 		.word	1684
 1826 0278 0D090000 		.word	2317
 1827 027c 2B080000 		.word	2091
 1828 0280 AB070000 		.word	1963
 1829 0284 19060000 		.word	1561
 1830 0288 F4070000 		.word	2036
 1831 028c B1070000 		.word	1969
 1832 0290 06080000 		.word	2054
 1833 0294 C0070000 		.word	1984
 1834 0298 9D070000 		.word	1949
 1835 029c 92070000 		.word	1938
 1836 02a0 B7070000 		.word	1975
 1837 02a4 CA070000 		.word	1994
 1838 02a8 BF070000 		.word	1983
 1839 02ac A9070000 		.word	1961
 1840 02b0 8A070000 		.word	1930
 1841 02b4 B4070000 		.word	1972
 1842 02b8 B9070000 		.word	1977
 1843 02bc C5070000 		.word	1989
 1844 02c0 D1070000 		.word	2001
 1845 02c4 A9070000 		.word	1961
 1846 02c8 93070000 		.word	1939
 1847 02cc 55070000 		.word	1877
 1848 02d0 C1070000 		.word	1985
 1849 02d4 85070000 		.word	1925
 1850 02d8 22070000 		.word	1826
 1851 02dc F0070000 		.word	2032
 1852 02e0 D2070000 		.word	2002
 1853 02e4 20070000 		.word	1824
 1854 02e8 08080000 		.word	2056
 1855 02ec 17080000 		.word	2071
 1856 02f0 4A070000 		.word	1866
 1857 02f4 C4070000 		.word	1988
 1858 02f8 B0070000 		.word	1968
 1859 02fc A4070000 		.word	1956
 1860 0300 BF070000 		.word	1983
 1861 0304 94070000 		.word	1940
 1862 0308 23070000 		.word	1827
 1863 030c 00080000 		.word	2048
 1864 0310 9C080000 		.word	2204
 1865 0314 55070000 		.word	1877
 1866 0318 FB060000 		.word	1787
 1867 031c 74070000 		.word	1908
 1868 0320 D7070000 		.word	2007
 1869 0324 2A080000 		.word	2090
 1870 0328 13080000 		.word	2067
 1871 032c 52070000 		.word	1874
 1872 0330 00070000 		.word	1792
 1873 0334 87070000 		.word	1927
 1874 0338 EE070000 		.word	2030
ARM GAS  C:\Users\nhlan\AppData\Local\Temp\ccrObDJv.s 			page 63


 1875 033c FC070000 		.word	2044
 1876 0340 23080000 		.word	2083
 1877 0344 73070000 		.word	1907
 1878 0348 F4060000 		.word	1780
 1879 034c 89080000 		.word	2185
 1880 0350 4C080000 		.word	2124
 1881 0354 DF070000 		.word	2015
 1882 0358 49080000 		.word	2121
 1883 035c 68070000 		.word	1896
 1884 0360 AF060000 		.word	1711
 1885 0364 F7080000 		.word	2295
 1886 0368 DA080000 		.word	2266
 1887 036c 06090000 		.word	2310
 1888 0370 3F080000 		.word	2111
 1889 0374 51090000 		.word	2385
 1890 0378 0E070000 		.word	1806
 1891 037c BB070000 		.word	1979
 1892 0380 F6070000 		.word	2038
 1893 0384 B7080000 		.word	2231
 1894 0388 B7050000 		.word	1463
 1895 038c D6050000 		.word	1494
 1896 0390 2C090000 		.word	2348
 1897 0394 A5060000 		.word	1701
 1898 0398 7A060000 		.word	1658
 1899 039c E2090000 		.word	2530
 1900 03a0 C0070000 		.word	1984
 1901 03a4 A7060000 		.word	1703
 1902 03a8 9C080000 		.word	2204
 1903 03ac FA070000 		.word	2042
 1904 03b0 8B060000 		.word	1675
 1905 03b4 2F070000 		.word	1839
 1906 03b8 8E080000 		.word	2190
 1907 03bc D0060000 		.word	1744
 1908 03c0 00070000 		.word	1792
 1909 03c4 50090000 		.word	2384
 1910 03c8 64060000 		.word	1636
 1911 03cc DC070000 		.word	2012
 1912 03d0 84080000 		.word	2180
 1913 03d4 B0070000 		.word	1968
 1914 03d8 F6050000 		.word	1526
 1915 03dc 2E080000 		.word	2094
 1916 03e0 97080000 		.word	2199
 1917 03e4 17060000 		.word	1559
 1918 03e8 54070000 		.word	1876
 1919 03ec 2D090000 		.word	2349
 1920 03f0 23060000 		.word	1571
 1921 03f4 C6080000 		.word	2246
 1922 03f8 16070000 		.word	1814
 1923 03fc 86070000 		.word	1926
 1924 0400 E0070000 		.word	2016
 1925 0404 7E080000 		.word	2174
 1926 0408 C4070000 		.word	1988
 1927 040c D0050000 		.word	1488
 1928 0410 9D060000 		.word	1693
 1929 0414 89090000 		.word	2441
 1930 0418 12080000 		.word	2066
 1931 041c DC070000 		.word	2012
ARM GAS  C:\Users\nhlan\AppData\Local\Temp\ccrObDJv.s 			page 64


 1932 0420 83080000 		.word	2179
 1933 0424 10070000 		.word	1808
 1934 0428 41060000 		.word	1601
 1935 042c 4C080000 		.word	2124
 1936 0430 F7070000 		.word	2039
 1937 0434 32070000 		.word	1842
 1938 0438 EB080000 		.word	2283
 1939 043c 00080000 		.word	2048
 1940 0440 5E060000 		.word	1630
 1941 0444 D5070000 		.word	2005
 1942 0448 CA070000 		.word	1994
 1943 044c DE070000 		.word	2014
 1944 0450 F4080000 		.word	2292
 1945 0454 42080000 		.word	2114
 1946 0458 78060000 		.word	1656
 1947 045c 2D070000 		.word	1837
 1948 0460 34080000 		.word	2100
 1949 0464 0A070000 		.word	1802
 1950 0468 10080000 		.word	2064
 1951 046c 59090000 		.word	2393
 1952 0470 17070000 		.word	1815
 1953 0474 36070000 		.word	1846
 1954 0478 EF070000 		.word	2031
 1955 047c 55070000 		.word	1877
 1956 0480 D9060000 		.word	1753
 1957 0484 06080000 		.word	2054
 1958 0488 BD070000 		.word	1981
 1959 048c D2070000 		.word	2002
 1960 0490 CE070000 		.word	1998
 1961 0494 A1070000 		.word	1953
 1962 0498 B7070000 		.word	1975
 1963 049c AD070000 		.word	1965
 1964 04a0 AD070000 		.word	1965
 1965 04a4 B1070000 		.word	1969
 1966 04a8 ED070000 		.word	2029
 1967 04ac A1070000 		.word	1953
 1968 04b0 88070000 		.word	1928
 1969 04b4 BA070000 		.word	1978
 1970 04b8 B0070000 		.word	1968
 1971 04bc B1070000 		.word	1969
 1972 04c0 CD070000 		.word	1997
 1973 04c4 03090000 		.word	2307
 1974 04c8 E8070000 		.word	2024
 1975 04cc 22070000 		.word	1826
 1976 04d0 06070000 		.word	1798
 1977 04d4 19070000 		.word	1817
 1978 04d8 09080000 		.word	2057
 1979 04dc 57080000 		.word	2135
 1980 04e0 E1070000 		.word	2017
 1981 04e4 85070000 		.word	1925
 1982 04e8 A3070000 		.word	1955
 1983 04ec BE070000 		.word	1982
 1984 04f0 C9070000 		.word	1993
 1985 04f4 BB070000 		.word	1979
 1986 04f8 AC070000 		.word	1964
 1987 04fc AB070000 		.word	1963
 1988 0500 9D070000 		.word	1949
ARM GAS  C:\Users\nhlan\AppData\Local\Temp\ccrObDJv.s 			page 65


 1989 0504 A2090000 		.word	2466
 1990 0508 70070000 		.word	1904
 1991 050c 3A060000 		.word	1594
 1992 0510 58090000 		.word	2392
 1993 0514 C9070000 		.word	1993
 1994 0518 B6060000 		.word	1718
 1995 051c 2B080000 		.word	2091
 1996 0520 3C080000 		.word	2108
 1997 0524 CE060000 		.word	1742
 1998 0528 33070000 		.word	1843
 1999 052c F2080000 		.word	2290
 2000 0530 3B070000 		.word	1851
 2001 0534 05070000 		.word	1797
 2002 0538 59090000 		.word	2393
 2003 053c 58070000 		.word	1880
 2004 0540 F4060000 		.word	1780
 2005 0544 03090000 		.word	2307
 2006 0548 81070000 		.word	1921
 2007 054c C0060000 		.word	1728
 2008 0550 6A070000 		.word	1898
 2009 0554 36080000 		.word	2102
 2010 0558 EB060000 		.word	1771
 2011 055c 69070000 		.word	1897
 2012 0560 47080000 		.word	2119
 2013 0564 C3070000 		.word	1987
 2014 0568 61060000 		.word	1633
 2015 056c 32090000 		.word	2354
 2016 0570 0B090000 		.word	2315
 2017 0574 F4050000 		.word	1524
 2018 0578 110A0000 		.word	2577
 2019 057c C9070000 		.word	1993
 2020 0580 B4070000 		.word	1972
 2021 0584 A3070000 		.word	1955
 2022 0588 6B070000 		.word	1899
 2023 058c B1070000 		.word	1969
 2024 0590 E0070000 		.word	2016
 2025 0594 DA070000 		.word	2010
 2026 0598 BE070000 		.word	1982
 2027 059c A8070000 		.word	1960
 2028 05a0 BB070000 		.word	1979
 2029 05a4 96070000 		.word	1942
 2030 05a8 B1070000 		.word	1969
 2031 05ac BF070000 		.word	1983
 2032 05b0 B5070000 		.word	1973
 2033 05b4 B1070000 		.word	1969
 2034 05b8 C0070000 		.word	1984
 2035 05bc A6070000 		.word	1958
 2036 05c0 89070000 		.word	1929
 2037 05c4 AC080000 		.word	2220
 2038 05c8 66070000 		.word	1894
 2039 05cc A6080000 		.word	2214
 2040 05d0 06080000 		.word	2054
 2041 05d4 DB070000 		.word	2011
 2042 05d8 43070000 		.word	1859
 2043 05dc DA060000 		.word	1754
 2044 05e0 75070000 		.word	1909
 2045 05e4 87070000 		.word	1927
ARM GAS  C:\Users\nhlan\AppData\Local\Temp\ccrObDJv.s 			page 66


 2046 05e8 7F080000 		.word	2175
 2047 05ec C2070000 		.word	1986
 2048 05f0 BA070000 		.word	1978
 2049 05f4 A3070000 		.word	1955
 2050 05f8 BB070000 		.word	1979
 2051 05fc AF070000 		.word	1967
 2052 0600 C8070000 		.word	1992
 2053 0604 CB080000 		.word	2251
 2054 0608 25070000 		.word	1829
 2055 060c 6D060000 		.word	1645
 2056 0610 3A070000 		.word	1850
 2057 0614 F6070000 		.word	2038
 2058 0618 1E080000 		.word	2078
 2059 061c 4A080000 		.word	2122
 2060 0620 79070000 		.word	1913
 2061 0624 06070000 		.word	1798
 2062 0628 7D070000 		.word	1917
 2063 062c B8070000 		.word	1976
 2064 0630 03080000 		.word	2051
 2065 0634 45080000 		.word	2117
 2066 0638 A1070000 		.word	1953
 2067 063c 1D070000 		.word	1821
 2068 0640 69070000 		.word	1897
 2069 0644 B8070000 		.word	1976
 2070 0648 44080000 		.word	2116
 2071 064c D4070000 		.word	2004
 2072 0650 9D070000 		.word	1949
 2073 0654 22070000 		.word	1826
 2074 0658 56070000 		.word	1878
 2075 065c 43070000 		.word	1859
 2076 0660 D6080000 		.word	2262
 2077 0664 7C040000 		.word	1148
 2078 0668 100A0000 		.word	2576
 2079 066c 88040000 		.word	1160
 2080 0670 AB070000 		.word	1963
 2081 0674 51080000 		.word	2129
 2082 0678 D9070000 		.word	2009
 2083 067c 74060000 		.word	1652
 2084 0680 8A080000 		.word	2186
 2085 0684 87070000 		.word	1927
 2086 0688 9D070000 		.word	1949
 2087 068c A4070000 		.word	1956
 2088 0690 B0070000 		.word	1968
 2089 0694 9D070000 		.word	1949
 2090 0698 A3070000 		.word	1955
 2091 069c B6070000 		.word	1974
 2092 06a0 B9070000 		.word	1977
 2093 06a4 D7070000 		.word	2007
 2094 06a8 B9070000 		.word	1977
 2095 06ac CE070000 		.word	1998
 2096 06b0 7B070000 		.word	1915
 2097 06b4 AD070000 		.word	1965
 2098 06b8 B6070000 		.word	1974
 2099 06bc C5070000 		.word	1989
 2100 06c0 BA070000 		.word	1978
 2101 06c4 B0070000 		.word	1968
 2102 06c8 47070000 		.word	1863
ARM GAS  C:\Users\nhlan\AppData\Local\Temp\ccrObDJv.s 			page 67


 2103 06cc CD070000 		.word	1997
 2104 06d0 A5070000 		.word	1957
 2105 06d4 3D070000 		.word	1853
 2106 06d8 11080000 		.word	2065
 2107 06dc 17080000 		.word	2071
 2108 06e0 0E070000 		.word	1806
 2109 06e4 1E080000 		.word	2078
 2110 06e8 1E080000 		.word	2078
 2111 06ec 71070000 		.word	1905
 2112 06f0 BE070000 		.word	1982
 2113 06f4 B3070000 		.word	1971
 2114 06f8 A8070000 		.word	1960
 2115 06fc BF070000 		.word	1983
 2116 0700 80060000 		.word	1664
 2117 0704 03070000 		.word	1795
 2118 0708 0A080000 		.word	2058
 2119 070c D9080000 		.word	2265
 2120 0710 1A080000 		.word	2074
 2121 0714 00070000 		.word	1792
 2122 0718 5B070000 		.word	1883
 2123 071c 4E070000 		.word	1870
 2124 0720 DB070000 		.word	2011
 2125 0724 71080000 		.word	2161
 2126 0728 1B080000 		.word	2075
 2127 072c 29070000 		.word	1833
 2128 0730 3C070000 		.word	1852
 2129 0734 93070000 		.word	1939
 2130 0738 E8070000 		.word	2024
 2131 073c 12080000 		.word	2066
 2132 0740 10090000 		.word	2320
 2133 0744 0D070000 		.word	1805
 2134 0748 8D070000 		.word	1933
 2135 074c 94070000 		.word	1940
 2136 0750 6E070000 		.word	1902
 2137 0754 22090000 		.word	2338
 2138 0758 1C080000 		.word	2076
 2139 075c CC060000 		.word	1740
 2140 0760 24070000 		.word	1828
 2141 0764 52070000 		.word	1874
 2142 0768 4F060000 		.word	1615
 2143 076c D5080000 		.word	2261
 2144 0770 96070000 		.word	1942
 2145 0774 BB070000 		.word	1979
 2146 0778 91070000 		.word	1937
 2147 077c 1B080000 		.word	2075
 2148 0780 87070000 		.word	1927
 2149 0784 A4050000 		.word	1444
 2150 0788 7C050000 		.word	1404
 2151 078c 75090000 		.word	2421
 2152 0790 00070000 		.word	1792
 2153 0794 9B060000 		.word	1691
 2154 0798 B7090000 		.word	2487
 2155 079c EB070000 		.word	2027
 2156 07a0 C1060000 		.word	1729
 2157 07a4 CF070000 		.word	1999
 2158 07a8 05080000 		.word	2053
 2159 07ac 6B060000 		.word	1643
ARM GAS  C:\Users\nhlan\AppData\Local\Temp\ccrObDJv.s 			page 68


 2160 07b0 2F070000 		.word	1839
 2161 07b4 E8080000 		.word	2280
 2162 07b8 FB060000 		.word	1787
 2163 07bc F0060000 		.word	1776
 2164 07c0 F0080000 		.word	2288
 2165 07c4 0A080000 		.word	2058
 2166 07c8 9D060000 		.word	1693
 2167 07cc 5C080000 		.word	2140
 2168 07d0 5B080000 		.word	2139
 2169 07d4 11060000 		.word	1553
 2170 07d8 8D080000 		.word	2189
 2171 07dc 9D070000 		.word	1949
 2172 07e0 FC060000 		.word	1788
 2173 07e4 C7080000 		.word	2247
 2174 07e8 51080000 		.word	2129
 2175 07ec 90070000 		.word	1936
 2176 07f0 8F070000 		.word	1935
 2177 07f4 12090000 		.word	2322
 2178 07f8 AB080000 		.word	2219
 2179 07fc B2070000 		.word	1970
 2180              		.global	Piano_LUT
 2181              		.section	.data.Piano_LUT,"aw"
 2182              		.align	2
 2185              	Piano_LUT:
 2186 0000 6D070000 		.word	1901
 2187 0004 B6040000 		.word	1206
 2188 0008 35040000 		.word	1077
 2189 000c E70A0000 		.word	2791
 2190 0010 10070000 		.word	1808
 2191 0014 F2060000 		.word	1778
 2192 0018 B3070000 		.word	1971
 2193 001c 33070000 		.word	1843
 2194 0020 B3060000 		.word	1715
 2195 0024 00080000 		.word	2048
 2196 0028 9B070000 		.word	1947
 2197 002c 6E070000 		.word	1902
 2198 0030 5E070000 		.word	1886
 2199 0034 63070000 		.word	1891
 2200 0038 67070000 		.word	1895
 2201 003c 7F070000 		.word	1919
 2202 0040 79070000 		.word	1913
 2203 0044 42070000 		.word	1858
 2204 0048 96070000 		.word	1942
 2205 004c 27070000 		.word	1831
 2206 0050 65070000 		.word	1893
 2207 0054 68070000 		.word	1896
 2208 0058 82070000 		.word	1922
 2209 005c 69070000 		.word	1897
 2210 0060 87070000 		.word	1927
 2211 0064 F5050000 		.word	1525
 2212 0068 EB030000 		.word	1003
 2213 006c 23060000 		.word	1571
 2214 0070 20070000 		.word	1824
 2215 0074 5E080000 		.word	2142
 2216 0078 42070000 		.word	1858
 2217 007c A1060000 		.word	1697
 2218 0080 CA070000 		.word	1994
ARM GAS  C:\Users\nhlan\AppData\Local\Temp\ccrObDJv.s 			page 69


 2219 0084 2B080000 		.word	2091
 2220 0088 BC070000 		.word	1980
 2221 008c E6060000 		.word	1766
 2222 0090 13070000 		.word	1811
 2223 0094 A9070000 		.word	1961
 2224 0098 B0070000 		.word	1968
 2225 009c 2C070000 		.word	1836
 2226 00a0 73070000 		.word	1907
 2227 00a4 E7070000 		.word	2023
 2228 00a8 B4070000 		.word	1972
 2229 00ac D6070000 		.word	2006
 2230 00b0 5C070000 		.word	1884
 2231 00b4 5D070000 		.word	1885
 2232 00b8 1D080000 		.word	2077
 2233 00bc F8080000 		.word	2296
 2234 00c0 D3050000 		.word	1491
 2235 00c4 B6080000 		.word	2230
 2236 00c8 0D080000 		.word	2061
 2237 00cc AE050000 		.word	1454
 2238 00d0 04080000 		.word	2052
 2239 00d4 D1070000 		.word	2001
 2240 00d8 6F070000 		.word	1903
 2241 00dc 99070000 		.word	1945
 2242 00e0 53070000 		.word	1875
 2243 00e4 80050000 		.word	1408
 2244 00e8 82060000 		.word	1666
 2245 00ec FE050000 		.word	1534
 2246 00f0 EB040000 		.word	1259
 2247 00f4 EE080000 		.word	2286
 2248 00f8 26070000 		.word	1830
 2249 00fc 0D070000 		.word	1805
 2250 0100 AF070000 		.word	1967
 2251 0104 0E070000 		.word	1806
 2252 0108 2F070000 		.word	1839
 2253 010c C1070000 		.word	1985
 2254 0110 75070000 		.word	1909
 2255 0114 6E070000 		.word	1902
 2256 0118 6B070000 		.word	1899
 2257 011c 5D070000 		.word	1885
 2258 0120 5F070000 		.word	1887
 2259 0124 39080000 		.word	2105
 2260 0128 A0070000 		.word	1952
 2261 012c 83070000 		.word	1923
 2262 0130 91070000 		.word	1937
 2263 0134 6E070000 		.word	1902
 2264 0138 4D070000 		.word	1869
 2265 013c 79070000 		.word	1913
 2266 0140 7A070000 		.word	1914
 2267 0144 5A070000 		.word	1882
 2268 0148 6C070000 		.word	1900
 2269 014c 53070000 		.word	1875
 2270 0150 65070000 		.word	1893
 2271 0154 6A070000 		.word	1898
 2272 0158 62070000 		.word	1890
 2273 015c 63070000 		.word	1891
 2274 0160 73070000 		.word	1907
 2275 0164 A4050000 		.word	1444
ARM GAS  C:\Users\nhlan\AppData\Local\Temp\ccrObDJv.s 			page 70


 2276 0168 31060000 		.word	1585
 2277 016c A0060000 		.word	1696
 2278 0170 00070000 		.word	1792
 2279 0174 7E070000 		.word	1918
 2280 0178 66070000 		.word	1894
 2281 017c 5A070000 		.word	1882
 2282 0180 62070000 		.word	1890
 2283 0184 72070000 		.word	1906
 2284 0188 F3070000 		.word	2035
 2285 018c 00080000 		.word	2048
 2286 0190 27080000 		.word	2087
 2287 0194 23080000 		.word	2083
 2288 0198 AE070000 		.word	1966
 2289 019c B7070000 		.word	1975
 2290 01a0 2D070000 		.word	1837
 2291 01a4 63080000 		.word	2147
 2292 01a8 F5060000 		.word	1781
 2293 01ac F9070000 		.word	2041
 2294 01b0 CA080000 		.word	2250
 2295 01b4 3B070000 		.word	1851
 2296 01b8 D2070000 		.word	2002
 2297 01bc 7B070000 		.word	1915
 2298 01c0 31070000 		.word	1841
 2299 01c4 EB060000 		.word	1771
 2300 01c8 D5040000 		.word	1237
 2301 01cc A4090000 		.word	2468
 2302 01d0 10060000 		.word	1552
 2303 01d4 19080000 		.word	2073
 2304 01d8 AA060000 		.word	1706
 2305 01dc 12080000 		.word	2066
 2306 01e0 E1060000 		.word	1761
 2307 01e4 B2060000 		.word	1714
 2308 01e8 6D070000 		.word	1901
 2309 01ec DC070000 		.word	2012
 2310 01f0 A1070000 		.word	1953
 2311 01f4 E0060000 		.word	1760
 2312 01f8 5A070000 		.word	1882
 2313 01fc C9070000 		.word	1993
 2314 0200 B8070000 		.word	1976
 2315 0204 0F070000 		.word	1807
 2316 0208 DC070000 		.word	2012
 2317 020c 7A060000 		.word	1658
 2318 0210 74080000 		.word	2164
 2319 0214 5F070000 		.word	1887
 2320 0218 60070000 		.word	1888
 2321 021c F7060000 		.word	1783
 2322 0220 EE070000 		.word	2030
 2323 0224 6F070000 		.word	1903
 2324 0228 BD070000 		.word	1981
 2325 022c 7B070000 		.word	1915
 2326 0230 0A070000 		.word	1802
 2327 0234 72070000 		.word	1906
 2328 0238 A8070000 		.word	1960
 2329 023c 67070000 		.word	1895
 2330 0240 73070000 		.word	1907
 2331 0244 56070000 		.word	1878
 2332 0248 42070000 		.word	1858
ARM GAS  C:\Users\nhlan\AppData\Local\Temp\ccrObDJv.s 			page 71


 2333 024c 4C070000 		.word	1868
 2334 0250 A4070000 		.word	1956
 2335 0254 74070000 		.word	1908
 2336 0258 52070000 		.word	1874
 2337 025c 68070000 		.word	1896
 2338 0260 69070000 		.word	1897
 2339 0264 2D090000 		.word	2349
 2340 0268 FE080000 		.word	2302
 2341 026c 6E060000 		.word	1646
 2342 0270 DD070000 		.word	2013
 2343 0274 F1070000 		.word	2033
 2344 0278 A1070000 		.word	1953
 2345 027c 69070000 		.word	1897
 2346 0280 29070000 		.word	1833
 2347 0284 72070000 		.word	1906
 2348 0288 65070000 		.word	1893
 2349 028c E9070000 		.word	2025
 2350 0290 1B060000 		.word	1563
 2351 0294 72080000 		.word	2162
 2352 0298 A0070000 		.word	1952
 2353 029c 0A070000 		.word	1802
 2354 02a0 82070000 		.word	1922
 2355 02a4 3A060000 		.word	1594
 2356 02a8 06060000 		.word	1542
 2357 02ac EA060000 		.word	1770
 2358 02b0 4C070000 		.word	1868
 2359 02b4 30080000 		.word	2096
 2360 02b8 69090000 		.word	2409
 2361 02bc E4060000 		.word	1764
 2362 02c0 26070000 		.word	1830
 2363 02c4 F6080000 		.word	2294
 2364 02c8 58080000 		.word	2136
 2365 02cc FE060000 		.word	1790
 2366 02d0 E1070000 		.word	2017
 2367 02d4 6D070000 		.word	1901
 2368 02d8 BE060000 		.word	1726
 2369 02dc 82070000 		.word	1922
 2370 02e0 860A0000 		.word	2694
 2371 02e4 550A0000 		.word	2645
 2372 02e8 C8090000 		.word	2504
 2373 02ec ED090000 		.word	2541
 2374 02f0 8C070000 		.word	1932
 2375 02f4 8E070000 		.word	1934
 2376 02f8 FB060000 		.word	1787
 2377 02fc 5D080000 		.word	2141
 2378 0300 62070000 		.word	1890
 2379 0304 84070000 		.word	1924
 2380 0308 7F070000 		.word	1919
 2381 030c 4A070000 		.word	1866
 2382 0310 30070000 		.word	1840
 2383 0314 64070000 		.word	1892
 2384 0318 3B070000 		.word	1851
 2385 031c 72070000 		.word	1906
 2386 0320 B0060000 		.word	1712
 2387 0324 C0060000 		.word	1728
 2388 0328 C3060000 		.word	1731
 2389 032c 68070000 		.word	1896
ARM GAS  C:\Users\nhlan\AppData\Local\Temp\ccrObDJv.s 			page 72


 2390 0330 64070000 		.word	1892
 2391 0334 50070000 		.word	1872
 2392 0338 68070000 		.word	1896
 2393 033c 7F070000 		.word	1919
 2394 0340 51070000 		.word	1873
 2395 0344 75070000 		.word	1909
 2396 0348 70070000 		.word	1904
 2397 034c 83070000 		.word	1923
 2398 0350 7B070000 		.word	1915
 2399 0354 35070000 		.word	1845
 2400 0358 6C070000 		.word	1900
 2401 035c 7D070000 		.word	1917
 2402 0360 C1090000 		.word	2497
 2403 0364 C7090000 		.word	2503
 2404 0368 BB080000 		.word	2235
 2405 036c 12080000 		.word	2066
 2406 0370 3F060000 		.word	1599
 2407 0374 C6080000 		.word	2246
 2408 0378 5C070000 		.word	1884
 2409 037c 6A070000 		.word	1898
 2410 0380 47070000 		.word	1863
 2411 0384 30070000 		.word	1840
 2412 0388 D6090000 		.word	2518
 2413 038c 30060000 		.word	1584
 2414 0390 15070000 		.word	1813
 2415 0394 85070000 		.word	1925
 2416 0398 C8070000 		.word	1992
 2417 039c 6B070000 		.word	1899
 2418 03a0 3D060000 		.word	1597
 2419 03a4 AE060000 		.word	1710
 2420 03a8 9A060000 		.word	1690
 2421 03ac AC060000 		.word	1708
 2422 03b0 27070000 		.word	1831
 2423 03b4 8E070000 		.word	1934
 2424 03b8 4B070000 		.word	1867
 2425 03bc 7E070000 		.word	1918
 2426 03c0 E50A0000 		.word	2789
 2427 03c4 92050000 		.word	1426
 2428 03c8 5D080000 		.word	2141
 2429 03cc BF070000 		.word	1983
 2430 03d0 30070000 		.word	1840
 2431 03d4 7A070000 		.word	1914
 2432 03d8 61070000 		.word	1889
 2433 03dc 01070000 		.word	1793
 2434 03e0 60080000 		.word	2144
 2435 03e4 E8070000 		.word	2024
 2436 03e8 74070000 		.word	1908
 2437 03ec 83070000 		.word	1923
 2438 03f0 75070000 		.word	1909
 2439 03f4 6B070000 		.word	1899
 2440 03f8 23070000 		.word	1827
 2441 03fc 72070000 		.word	1906
 2442 0400 88030000 		.word	904
 2443 0404 8D050000 		.word	1421
 2444 0408 880A0000 		.word	2696
 2445 040c 55070000 		.word	1877
 2446 0410 03070000 		.word	1795
ARM GAS  C:\Users\nhlan\AppData\Local\Temp\ccrObDJv.s 			page 73


 2447 0414 2F070000 		.word	1839
 2448 0418 83070000 		.word	1923
 2449 041c 88060000 		.word	1672
 2450 0420 C7070000 		.word	1991
 2451 0424 CC070000 		.word	1996
 2452 0428 7B070000 		.word	1915
 2453 042c 60070000 		.word	1888
 2454 0430 78070000 		.word	1912
 2455 0434 53070000 		.word	1875
 2456 0438 72070000 		.word	1906
 2457 043c 6D070000 		.word	1901
 2458 0440 3A070000 		.word	1850
 2459 0444 B0070000 		.word	1968
 2460 0448 50070000 		.word	1872
 2461 044c 5D070000 		.word	1885
 2462 0450 79070000 		.word	1913
 2463 0454 95070000 		.word	1941
 2464 0458 60070000 		.word	1888
 2465 045c 71070000 		.word	1905
 2466 0460 05060000 		.word	1541
 2467 0464 DC030000 		.word	988
 2468 0468 19060000 		.word	1561
 2469 046c 2C070000 		.word	1836
 2470 0470 40080000 		.word	2112
 2471 0474 22070000 		.word	1826
 2472 0478 7C060000 		.word	1660
 2473 047c D4070000 		.word	2004
 2474 0480 26080000 		.word	2086
 2475 0484 4D080000 		.word	2125
 2476 0488 BE050000 		.word	1470
 2477 048c 59070000 		.word	1881
 2478 0490 26070000 		.word	1830
 2479 0494 94070000 		.word	1940
 2480 0498 BC070000 		.word	1980
 2481 049c 9E070000 		.word	1950
 2482 04a0 2B080000 		.word	2091
 2483 04a4 E2070000 		.word	2018
 2484 04a8 CA070000 		.word	1994
 2485 04ac 42070000 		.word	1858
 2486 04b0 4E070000 		.word	1870
 2487 04b4 13080000 		.word	2067
 2488 04b8 A5080000 		.word	2213
 2489 04bc FC050000 		.word	1532
 2490 04c0 F2080000 		.word	2290
 2491 04c4 DA080000 		.word	2266
 2492 04c8 6B050000 		.word	1387
 2493 04cc 94070000 		.word	1940
 2494 04d0 0A080000 		.word	2058
 2495 04d4 59070000 		.word	1881
 2496 04d8 5B070000 		.word	1883
 2497 04dc 51070000 		.word	1873
 2498 04e0 66050000 		.word	1382
 2499 04e4 9C050000 		.word	1436
 2500 04e8 9C050000 		.word	1436
 2501 04ec BF040000 		.word	1215
 2502 04f0 E7070000 		.word	2023
 2503 04f4 12070000 		.word	1810
ARM GAS  C:\Users\nhlan\AppData\Local\Temp\ccrObDJv.s 			page 74


 2504 04f8 CC060000 		.word	1740
 2505 04fc 20070000 		.word	1824
 2506 0500 14070000 		.word	1812
 2507 0504 20070000 		.word	1824
 2508 0508 77070000 		.word	1911
 2509 050c DA070000 		.word	2010
 2510 0510 63070000 		.word	1891
 2511 0514 3B070000 		.word	1851
 2512 0518 6A070000 		.word	1898
 2513 051c 65070000 		.word	1893
 2514 0520 29080000 		.word	2089
 2515 0524 9B070000 		.word	1947
 2516 0528 A1070000 		.word	1953
 2517 052c B0070000 		.word	1968
 2518 0530 7A070000 		.word	1914
 2519 0534 5F070000 		.word	1887
 2520 0538 87070000 		.word	1927
 2521 053c 83070000 		.word	1923
 2522 0540 6F070000 		.word	1903
 2523 0544 60070000 		.word	1888
 2524 0548 6F070000 		.word	1903
 2525 054c 74070000 		.word	1908
 2526 0550 6B070000 		.word	1899
 2527 0554 64070000 		.word	1892
 2528 0558 67070000 		.word	1895
 2529 055c 79070000 		.word	1913
 2530 0560 4D060000 		.word	1613
 2531 0564 C9060000 		.word	1737
 2532 0568 25070000 		.word	1829
 2533 056c 53070000 		.word	1875
 2534 0570 7E070000 		.word	1918
 2535 0574 71070000 		.word	1905
 2536 0578 76070000 		.word	1910
 2537 057c 6B070000 		.word	1899
 2538 0580 57080000 		.word	2135
 2539 0584 02070000 		.word	1794
 2540 0588 99080000 		.word	2201
 2541 058c BC070000 		.word	1980
 2542 0590 8C080000 		.word	2188
 2543 0594 69070000 		.word	1897
 2544 0598 B0070000 		.word	1968
 2545 059c 64070000 		.word	1892
 2546 05a0 410A0000 		.word	2625
 2547 05a4 6C080000 		.word	2156
 2548 05a8 F0070000 		.word	2032
 2549 05ac FF080000 		.word	2303
 2550 05b0 27070000 		.word	1831
 2551 05b4 B3070000 		.word	1971
 2552 05b8 F8060000 		.word	1784
 2553 05bc 9B070000 		.word	1947
 2554 05c0 6D070000 		.word	1901
 2555 05c4 B1040000 		.word	1201
 2556 05c8 4E090000 		.word	2382
 2557 05cc 37060000 		.word	1591
 2558 05d0 39080000 		.word	2105
 2559 05d4 81060000 		.word	1665
 2560 05d8 E7070000 		.word	2023
ARM GAS  C:\Users\nhlan\AppData\Local\Temp\ccrObDJv.s 			page 75


 2561 05dc B0060000 		.word	1712
 2562 05e0 F3070000 		.word	2035
 2563 05e4 A5070000 		.word	1957
 2564 05e8 FA070000 		.word	2042
 2565 05ec 5E070000 		.word	1886
 2566 05f0 3D070000 		.word	1853
 2567 05f4 3B070000 		.word	1851
 2568 05f8 BF070000 		.word	1983
 2569 05fc C3070000 		.word	1987
 2570 0600 97080000 		.word	2199
 2571 0604 F8060000 		.word	1784
 2572 0608 6C060000 		.word	1644
 2573 060c CC080000 		.word	2252
 2574 0610 8D070000 		.word	1933
 2575 0614 2B070000 		.word	1835
 2576 0618 C0060000 		.word	1728
 2577 061c 0F080000 		.word	2063
 2578 0620 62070000 		.word	1890
 2579 0624 8E070000 		.word	1934
 2580 0628 77070000 		.word	1911
 2581 062c D9060000 		.word	1753
 2582 0630 68070000 		.word	1896
 2583 0634 AB070000 		.word	1963
 2584 0638 55070000 		.word	1877
 2585 063c 49070000 		.word	1865
 2586 0640 7C070000 		.word	1916
 2587 0644 ED060000 		.word	1773
 2588 0648 62070000 		.word	1890
 2589 064c 94070000 		.word	1940
 2590 0650 78070000 		.word	1912
 2591 0654 44070000 		.word	1860
 2592 0658 70070000 		.word	1904
 2593 065c 73070000 		.word	1907
 2594 0660 57090000 		.word	2391
 2595 0664 EC080000 		.word	2284
 2596 0668 46060000 		.word	1606
 2597 066c AA070000 		.word	1962
 2598 0670 FD070000 		.word	2045
 2599 0674 E3070000 		.word	2019
 2600 0678 43070000 		.word	1859
 2601 067c 95070000 		.word	1941
 2602 0680 7D070000 		.word	1917
 2603 0684 A5070000 		.word	1957
 2604 0688 77070000 		.word	1911
 2605 068c EA050000 		.word	1514
 2606 0690 7F080000 		.word	2175
 2607 0694 6B070000 		.word	1899
 2608 0698 A7070000 		.word	1959
 2609 069c 30070000 		.word	1840
 2610 06a0 22070000 		.word	1826
 2611 06a4 AE060000 		.word	1710
 2612 06a8 81070000 		.word	1921
 2613 06ac 5A070000 		.word	1882
 2614 06b0 EA060000 		.word	1770
 2615 06b4 94080000 		.word	2196
 2616 06b8 D3060000 		.word	1747
 2617 06bc C2060000 		.word	1730
ARM GAS  C:\Users\nhlan\AppData\Local\Temp\ccrObDJv.s 			page 76


 2618 06c0 16090000 		.word	2326
 2619 06c4 98070000 		.word	1944
 2620 06c8 E1060000 		.word	1761
 2621 06cc 52080000 		.word	2130
 2622 06d0 58070000 		.word	1880
 2623 06d4 D5060000 		.word	1749
 2624 06d8 9B070000 		.word	1947
 2625 06dc 13090000 		.word	2323
 2626 06e0 B6090000 		.word	2486
 2627 06e4 79090000 		.word	2425
 2628 06e8 91090000 		.word	2449
 2629 06ec B7070000 		.word	1975
 2630 06f0 01080000 		.word	2049
 2631 06f4 F5060000 		.word	1781
 2632 06f8 04080000 		.word	2052
 2633 06fc 63070000 		.word	1891
 2634 0700 71070000 		.word	1905
 2635 0704 B4070000 		.word	1972
 2636 0708 31070000 		.word	1841
 2637 070c 51070000 		.word	1873
 2638 0710 44070000 		.word	1860
 2639 0714 6E070000 		.word	1902
 2640 0718 4D070000 		.word	1869
 2641 071c 0F070000 		.word	1807
 2642 0720 02070000 		.word	1794
 2643 0724 CC060000 		.word	1740
 2644 0728 5F070000 		.word	1887
 2645 072c 65070000 		.word	1893
 2646 0730 69070000 		.word	1897
 2647 0734 66070000 		.word	1894
 2648 0738 73070000 		.word	1907
 2649 073c 4C070000 		.word	1868
 2650 0740 90070000 		.word	1936
 2651 0744 59070000 		.word	1881
 2652 0748 8B070000 		.word	1931
 2653 074c 67070000 		.word	1895
 2654 0750 38070000 		.word	1848
 2655 0754 51070000 		.word	1873
 2656 0758 8C070000 		.word	1932
 2657 075c 0D0B0000 		.word	2829
 2658 0760 D6080000 		.word	2262
 2659 0764 AE080000 		.word	2222
 2660 0768 4E070000 		.word	1870
 2661 076c 32060000 		.word	1586
 2662 0770 A6080000 		.word	2214
 2663 0774 B7070000 		.word	1975
 2664 0778 07070000 		.word	1799
 2665 077c F4060000 		.word	1780
 2666 0780 E5070000 		.word	2021
 2667 0784 8F090000 		.word	2447
 2668 0788 07060000 		.word	1543
 2669 078c 4E070000 		.word	1870
 2670 0790 84070000 		.word	1924
 2671 0794 6E070000 		.word	1902
 2672 0798 9A070000 		.word	1946
 2673 079c 39060000 		.word	1593
 2674 07a0 95060000 		.word	1685
ARM GAS  C:\Users\nhlan\AppData\Local\Temp\ccrObDJv.s 			page 77


 2675 07a4 DB060000 		.word	1755
 2676 07a8 06070000 		.word	1798
 2677 07ac 37070000 		.word	1847
 2678 07b0 7B070000 		.word	1915
 2679 07b4 56070000 		.word	1878
 2680 07b8 6F070000 		.word	1903
 2681 07bc E5090000 		.word	2533
 2682 07c0 29060000 		.word	1577
 2683 07c4 70080000 		.word	2160
 2684 07c8 9D070000 		.word	1949
 2685 07cc 18070000 		.word	1816
 2686 07d0 55070000 		.word	1877
 2687 07d4 A5070000 		.word	1957
 2688 07d8 2A070000 		.word	1834
 2689 07dc 4D070000 		.word	1869
 2690 07e0 A0070000 		.word	1952
 2691 07e4 F4060000 		.word	1780
 2692 07e8 AB070000 		.word	1963
 2693 07ec 46070000 		.word	1862
 2694 07f0 A9060000 		.word	1705
 2695 07f4 40080000 		.word	2112
 2696 07f8 A3070000 		.word	1955
 2697 07fc 6D070000 		.word	1901
 2698              		.global	Triangle_LUT
 2699              		.section	.data.Triangle_LUT,"aw"
 2700              		.align	2
 2703              	Triangle_LUT:
 2704 0000 00000000 		.word	0
 2705 0004 1F000000 		.word	31
 2706 0008 3F000000 		.word	63
 2707 000c 5F000000 		.word	95
 2708 0010 7F000000 		.word	127
 2709 0014 9F000000 		.word	159
 2710 0018 BF000000 		.word	191
 2711 001c DF000000 		.word	223
 2712 0020 FF000000 		.word	255
 2713 0024 1F010000 		.word	287
 2714 0028 3F010000 		.word	319
 2715 002c 5F010000 		.word	351
 2716 0030 7F010000 		.word	383
 2717 0034 9F010000 		.word	415
 2718 0038 BF010000 		.word	447
 2719 003c DF010000 		.word	479
 2720 0040 FF010000 		.word	511
 2721 0044 1F020000 		.word	543
 2722 0048 3F020000 		.word	575
 2723 004c 5F020000 		.word	607
 2724 0050 7F020000 		.word	639
 2725 0054 9F020000 		.word	671
 2726 0058 BF020000 		.word	703
 2727 005c DF020000 		.word	735
 2728 0060 FF020000 		.word	767
 2729 0064 1F030000 		.word	799
 2730 0068 3F030000 		.word	831
 2731 006c 5F030000 		.word	863
 2732 0070 7F030000 		.word	895
 2733 0074 9F030000 		.word	927
ARM GAS  C:\Users\nhlan\AppData\Local\Temp\ccrObDJv.s 			page 78


 2734 0078 BF030000 		.word	959
 2735 007c DF030000 		.word	991
 2736 0080 FF030000 		.word	1023
 2737 0084 1F040000 		.word	1055
 2738 0088 3F040000 		.word	1087
 2739 008c 5F040000 		.word	1119
 2740 0090 7F040000 		.word	1151
 2741 0094 9F040000 		.word	1183
 2742 0098 BF040000 		.word	1215
 2743 009c DF040000 		.word	1247
 2744 00a0 FF040000 		.word	1279
 2745 00a4 1F050000 		.word	1311
 2746 00a8 3F050000 		.word	1343
 2747 00ac 5F050000 		.word	1375
 2748 00b0 7F050000 		.word	1407
 2749 00b4 9F050000 		.word	1439
 2750 00b8 BF050000 		.word	1471
 2751 00bc DF050000 		.word	1503
 2752 00c0 FF050000 		.word	1535
 2753 00c4 1F060000 		.word	1567
 2754 00c8 3F060000 		.word	1599
 2755 00cc 5F060000 		.word	1631
 2756 00d0 7F060000 		.word	1663
 2757 00d4 9F060000 		.word	1695
 2758 00d8 BF060000 		.word	1727
 2759 00dc DF060000 		.word	1759
 2760 00e0 FF060000 		.word	1791
 2761 00e4 1F070000 		.word	1823
 2762 00e8 3F070000 		.word	1855
 2763 00ec 5F070000 		.word	1887
 2764 00f0 7F070000 		.word	1919
 2765 00f4 9F070000 		.word	1951
 2766 00f8 BF070000 		.word	1983
 2767 00fc DF070000 		.word	2015
 2768 0100 FF070000 		.word	2047
 2769 0104 1F080000 		.word	2079
 2770 0108 3F080000 		.word	2111
 2771 010c 5F080000 		.word	2143
 2772 0110 7F080000 		.word	2175
 2773 0114 9F080000 		.word	2207
 2774 0118 BF080000 		.word	2239
 2775 011c DF080000 		.word	2271
 2776 0120 FF080000 		.word	2303
 2777 0124 1F090000 		.word	2335
 2778 0128 3F090000 		.word	2367
 2779 012c 5F090000 		.word	2399
 2780 0130 7F090000 		.word	2431
 2781 0134 9F090000 		.word	2463
 2782 0138 BF090000 		.word	2495
 2783 013c DF090000 		.word	2527
 2784 0140 FF090000 		.word	2559
 2785 0144 1F0A0000 		.word	2591
 2786 0148 3F0A0000 		.word	2623
 2787 014c 5F0A0000 		.word	2655
 2788 0150 7F0A0000 		.word	2687
 2789 0154 9F0A0000 		.word	2719
 2790 0158 BF0A0000 		.word	2751
ARM GAS  C:\Users\nhlan\AppData\Local\Temp\ccrObDJv.s 			page 79


 2791 015c DF0A0000 		.word	2783
 2792 0160 FF0A0000 		.word	2815
 2793 0164 1F0B0000 		.word	2847
 2794 0168 3F0B0000 		.word	2879
 2795 016c 5F0B0000 		.word	2911
 2796 0170 7F0B0000 		.word	2943
 2797 0174 9F0B0000 		.word	2975
 2798 0178 BF0B0000 		.word	3007
 2799 017c DF0B0000 		.word	3039
 2800 0180 FF0B0000 		.word	3071
 2801 0184 1F0C0000 		.word	3103
 2802 0188 3F0C0000 		.word	3135
 2803 018c 5F0C0000 		.word	3167
 2804 0190 7F0C0000 		.word	3199
 2805 0194 9F0C0000 		.word	3231
 2806 0198 BF0C0000 		.word	3263
 2807 019c DF0C0000 		.word	3295
 2808 01a0 FF0C0000 		.word	3327
 2809 01a4 1F0D0000 		.word	3359
 2810 01a8 3F0D0000 		.word	3391
 2811 01ac 5F0D0000 		.word	3423
 2812 01b0 7F0D0000 		.word	3455
 2813 01b4 9F0D0000 		.word	3487
 2814 01b8 BF0D0000 		.word	3519
 2815 01bc DF0D0000 		.word	3551
 2816 01c0 FF0D0000 		.word	3583
 2817 01c4 1F0E0000 		.word	3615
 2818 01c8 3F0E0000 		.word	3647
 2819 01cc 5F0E0000 		.word	3679
 2820 01d0 7F0E0000 		.word	3711
 2821 01d4 9F0E0000 		.word	3743
 2822 01d8 BF0E0000 		.word	3775
 2823 01dc DF0E0000 		.word	3807
 2824 01e0 FF0E0000 		.word	3839
 2825 01e4 1F0F0000 		.word	3871
 2826 01e8 3F0F0000 		.word	3903
 2827 01ec 5F0F0000 		.word	3935
 2828 01f0 7F0F0000 		.word	3967
 2829 01f4 9F0F0000 		.word	3999
 2830 01f8 BF0F0000 		.word	4031
 2831 01fc DF0F0000 		.word	4063
 2832 0200 FF0F0000 		.word	4095
 2833 0204 DF0F0000 		.word	4063
 2834 0208 BF0F0000 		.word	4031
 2835 020c 9F0F0000 		.word	3999
 2836 0210 7F0F0000 		.word	3967
 2837 0214 5F0F0000 		.word	3935
 2838 0218 3F0F0000 		.word	3903
 2839 021c 1F0F0000 		.word	3871
 2840 0220 FF0E0000 		.word	3839
 2841 0224 DF0E0000 		.word	3807
 2842 0228 BF0E0000 		.word	3775
 2843 022c 9F0E0000 		.word	3743
 2844 0230 7F0E0000 		.word	3711
 2845 0234 5F0E0000 		.word	3679
 2846 0238 3F0E0000 		.word	3647
 2847 023c 1F0E0000 		.word	3615
ARM GAS  C:\Users\nhlan\AppData\Local\Temp\ccrObDJv.s 			page 80


 2848 0240 FF0D0000 		.word	3583
 2849 0244 DF0D0000 		.word	3551
 2850 0248 BF0D0000 		.word	3519
 2851 024c 9F0D0000 		.word	3487
 2852 0250 7F0D0000 		.word	3455
 2853 0254 5F0D0000 		.word	3423
 2854 0258 3F0D0000 		.word	3391
 2855 025c 1F0D0000 		.word	3359
 2856 0260 FF0C0000 		.word	3327
 2857 0264 DF0C0000 		.word	3295
 2858 0268 BF0C0000 		.word	3263
 2859 026c 9F0C0000 		.word	3231
 2860 0270 7F0C0000 		.word	3199
 2861 0274 5F0C0000 		.word	3167
 2862 0278 3F0C0000 		.word	3135
 2863 027c 1F0C0000 		.word	3103
 2864 0280 FF0B0000 		.word	3071
 2865 0284 DF0B0000 		.word	3039
 2866 0288 BF0B0000 		.word	3007
 2867 028c 9F0B0000 		.word	2975
 2868 0290 7F0B0000 		.word	2943
 2869 0294 5F0B0000 		.word	2911
 2870 0298 3F0B0000 		.word	2879
 2871 029c 1F0B0000 		.word	2847
 2872 02a0 FF0A0000 		.word	2815
 2873 02a4 DF0A0000 		.word	2783
 2874 02a8 BF0A0000 		.word	2751
 2875 02ac 9F0A0000 		.word	2719
 2876 02b0 7F0A0000 		.word	2687
 2877 02b4 5F0A0000 		.word	2655
 2878 02b8 3F0A0000 		.word	2623
 2879 02bc 1F0A0000 		.word	2591
 2880 02c0 FF090000 		.word	2559
 2881 02c4 DF090000 		.word	2527
 2882 02c8 BF090000 		.word	2495
 2883 02cc 9F090000 		.word	2463
 2884 02d0 7F090000 		.word	2431
 2885 02d4 5F090000 		.word	2399
 2886 02d8 3F090000 		.word	2367
 2887 02dc 1F090000 		.word	2335
 2888 02e0 FF080000 		.word	2303
 2889 02e4 DF080000 		.word	2271
 2890 02e8 BF080000 		.word	2239
 2891 02ec 9F080000 		.word	2207
 2892 02f0 7F080000 		.word	2175
 2893 02f4 5F080000 		.word	2143
 2894 02f8 3F080000 		.word	2111
 2895 02fc 1F080000 		.word	2079
 2896 0300 FF070000 		.word	2047
 2897 0304 DF070000 		.word	2015
 2898 0308 BF070000 		.word	1983
 2899 030c 9F070000 		.word	1951
 2900 0310 7F070000 		.word	1919
 2901 0314 5F070000 		.word	1887
 2902 0318 3F070000 		.word	1855
 2903 031c 1F070000 		.word	1823
 2904 0320 FF060000 		.word	1791
ARM GAS  C:\Users\nhlan\AppData\Local\Temp\ccrObDJv.s 			page 81


 2905 0324 DF060000 		.word	1759
 2906 0328 BF060000 		.word	1727
 2907 032c 9F060000 		.word	1695
 2908 0330 7F060000 		.word	1663
 2909 0334 5F060000 		.word	1631
 2910 0338 3F060000 		.word	1599
 2911 033c 1F060000 		.word	1567
 2912 0340 FF050000 		.word	1535
 2913 0344 DF050000 		.word	1503
 2914 0348 BF050000 		.word	1471
 2915 034c 9F050000 		.word	1439
 2916 0350 7F050000 		.word	1407
 2917 0354 5F050000 		.word	1375
 2918 0358 3F050000 		.word	1343
 2919 035c 1F050000 		.word	1311
 2920 0360 FF040000 		.word	1279
 2921 0364 DF040000 		.word	1247
 2922 0368 BF040000 		.word	1215
 2923 036c 9F040000 		.word	1183
 2924 0370 7F040000 		.word	1151
 2925 0374 5F040000 		.word	1119
 2926 0378 3F040000 		.word	1087
 2927 037c 1F040000 		.word	1055
 2928 0380 FF030000 		.word	1023
 2929 0384 DF030000 		.word	991
 2930 0388 BF030000 		.word	959
 2931 038c 9F030000 		.word	927
 2932 0390 7F030000 		.word	895
 2933 0394 5F030000 		.word	863
 2934 0398 3F030000 		.word	831
 2935 039c 1F030000 		.word	799
 2936 03a0 FF020000 		.word	767
 2937 03a4 DF020000 		.word	735
 2938 03a8 BF020000 		.word	703
 2939 03ac 9F020000 		.word	671
 2940 03b0 7F020000 		.word	639
 2941 03b4 5F020000 		.word	607
 2942 03b8 3F020000 		.word	575
 2943 03bc 1F020000 		.word	543
 2944 03c0 FF010000 		.word	511
 2945 03c4 DF010000 		.word	479
 2946 03c8 BF010000 		.word	447
 2947 03cc 9F010000 		.word	415
 2948 03d0 7F010000 		.word	383
 2949 03d4 5F010000 		.word	351
 2950 03d8 3F010000 		.word	319
 2951 03dc 1F010000 		.word	287
 2952 03e0 FF000000 		.word	255
 2953 03e4 DF000000 		.word	223
 2954 03e8 BF000000 		.word	191
 2955 03ec 9F000000 		.word	159
 2956 03f0 7F000000 		.word	127
 2957 03f4 5F000000 		.word	95
 2958 03f8 3F000000 		.word	63
 2959 03fc 1F000000 		.word	31
 2960              		.global	Saw_LUT
 2961              		.section	.data.Saw_LUT,"aw"
ARM GAS  C:\Users\nhlan\AppData\Local\Temp\ccrObDJv.s 			page 82


 2962              		.align	2
 2965              	Saw_LUT:
 2966 0000 00000000 		.word	0
 2967 0004 0F000000 		.word	15
 2968 0008 1F000000 		.word	31
 2969 000c 2F000000 		.word	47
 2970 0010 3F000000 		.word	63
 2971 0014 4F000000 		.word	79
 2972 0018 5F000000 		.word	95
 2973 001c 6F000000 		.word	111
 2974 0020 7F000000 		.word	127
 2975 0024 8F000000 		.word	143
 2976 0028 9F000000 		.word	159
 2977 002c AF000000 		.word	175
 2978 0030 BF000000 		.word	191
 2979 0034 CF000000 		.word	207
 2980 0038 DF000000 		.word	223
 2981 003c EF000000 		.word	239
 2982 0040 FF000000 		.word	255
 2983 0044 0F010000 		.word	271
 2984 0048 1F010000 		.word	287
 2985 004c 2F010000 		.word	303
 2986 0050 3F010000 		.word	319
 2987 0054 4F010000 		.word	335
 2988 0058 5F010000 		.word	351
 2989 005c 6F010000 		.word	367
 2990 0060 7F010000 		.word	383
 2991 0064 8F010000 		.word	399
 2992 0068 9F010000 		.word	415
 2993 006c AF010000 		.word	431
 2994 0070 BF010000 		.word	447
 2995 0074 CF010000 		.word	463
 2996 0078 DF010000 		.word	479
 2997 007c EF010000 		.word	495
 2998 0080 FF010000 		.word	511
 2999 0084 0F020000 		.word	527
 3000 0088 1F020000 		.word	543
 3001 008c 2F020000 		.word	559
 3002 0090 3F020000 		.word	575
 3003 0094 4F020000 		.word	591
 3004 0098 5F020000 		.word	607
 3005 009c 6F020000 		.word	623
 3006 00a0 7F020000 		.word	639
 3007 00a4 8F020000 		.word	655
 3008 00a8 9F020000 		.word	671
 3009 00ac AF020000 		.word	687
 3010 00b0 BF020000 		.word	703
 3011 00b4 CF020000 		.word	719
 3012 00b8 DF020000 		.word	735
 3013 00bc EF020000 		.word	751
 3014 00c0 FF020000 		.word	767
 3015 00c4 0F030000 		.word	783
 3016 00c8 1F030000 		.word	799
 3017 00cc 2F030000 		.word	815
 3018 00d0 3F030000 		.word	831
 3019 00d4 4F030000 		.word	847
 3020 00d8 5F030000 		.word	863
ARM GAS  C:\Users\nhlan\AppData\Local\Temp\ccrObDJv.s 			page 83


 3021 00dc 6F030000 		.word	879
 3022 00e0 7F030000 		.word	895
 3023 00e4 8F030000 		.word	911
 3024 00e8 9F030000 		.word	927
 3025 00ec AF030000 		.word	943
 3026 00f0 BF030000 		.word	959
 3027 00f4 CF030000 		.word	975
 3028 00f8 DF030000 		.word	991
 3029 00fc EF030000 		.word	1007
 3030 0100 FF030000 		.word	1023
 3031 0104 0F040000 		.word	1039
 3032 0108 1F040000 		.word	1055
 3033 010c 2F040000 		.word	1071
 3034 0110 3F040000 		.word	1087
 3035 0114 4F040000 		.word	1103
 3036 0118 5F040000 		.word	1119
 3037 011c 6F040000 		.word	1135
 3038 0120 7F040000 		.word	1151
 3039 0124 8F040000 		.word	1167
 3040 0128 9F040000 		.word	1183
 3041 012c AF040000 		.word	1199
 3042 0130 BF040000 		.word	1215
 3043 0134 CF040000 		.word	1231
 3044 0138 DF040000 		.word	1247
 3045 013c EF040000 		.word	1263
 3046 0140 FF040000 		.word	1279
 3047 0144 0F050000 		.word	1295
 3048 0148 1F050000 		.word	1311
 3049 014c 2F050000 		.word	1327
 3050 0150 3F050000 		.word	1343
 3051 0154 4F050000 		.word	1359
 3052 0158 5F050000 		.word	1375
 3053 015c 6F050000 		.word	1391
 3054 0160 7F050000 		.word	1407
 3055 0164 8F050000 		.word	1423
 3056 0168 9F050000 		.word	1439
 3057 016c AF050000 		.word	1455
 3058 0170 BF050000 		.word	1471
 3059 0174 CF050000 		.word	1487
 3060 0178 DF050000 		.word	1503
 3061 017c EF050000 		.word	1519
 3062 0180 FF050000 		.word	1535
 3063 0184 0F060000 		.word	1551
 3064 0188 1F060000 		.word	1567
 3065 018c 2F060000 		.word	1583
 3066 0190 3F060000 		.word	1599
 3067 0194 4F060000 		.word	1615
 3068 0198 5F060000 		.word	1631
 3069 019c 6F060000 		.word	1647
 3070 01a0 7F060000 		.word	1663
 3071 01a4 8F060000 		.word	1679
 3072 01a8 9F060000 		.word	1695
 3073 01ac AF060000 		.word	1711
 3074 01b0 BF060000 		.word	1727
 3075 01b4 CF060000 		.word	1743
 3076 01b8 DF060000 		.word	1759
 3077 01bc EF060000 		.word	1775
ARM GAS  C:\Users\nhlan\AppData\Local\Temp\ccrObDJv.s 			page 84


 3078 01c0 FF060000 		.word	1791
 3079 01c4 0F070000 		.word	1807
 3080 01c8 1F070000 		.word	1823
 3081 01cc 2F070000 		.word	1839
 3082 01d0 3F070000 		.word	1855
 3083 01d4 4F070000 		.word	1871
 3084 01d8 5F070000 		.word	1887
 3085 01dc 6F070000 		.word	1903
 3086 01e0 7F070000 		.word	1919
 3087 01e4 8F070000 		.word	1935
 3088 01e8 9F070000 		.word	1951
 3089 01ec AF070000 		.word	1967
 3090 01f0 BF070000 		.word	1983
 3091 01f4 CF070000 		.word	1999
 3092 01f8 DF070000 		.word	2015
 3093 01fc EF070000 		.word	2031
 3094 0200 FF070000 		.word	2047
 3095 0204 0F080000 		.word	2063
 3096 0208 1F080000 		.word	2079
 3097 020c 2F080000 		.word	2095
 3098 0210 3F080000 		.word	2111
 3099 0214 4F080000 		.word	2127
 3100 0218 5F080000 		.word	2143
 3101 021c 6F080000 		.word	2159
 3102 0220 7F080000 		.word	2175
 3103 0224 8F080000 		.word	2191
 3104 0228 9F080000 		.word	2207
 3105 022c AF080000 		.word	2223
 3106 0230 BF080000 		.word	2239
 3107 0234 CF080000 		.word	2255
 3108 0238 DF080000 		.word	2271
 3109 023c EF080000 		.word	2287
 3110 0240 FF080000 		.word	2303
 3111 0244 0F090000 		.word	2319
 3112 0248 1F090000 		.word	2335
 3113 024c 2F090000 		.word	2351
 3114 0250 3F090000 		.word	2367
 3115 0254 4F090000 		.word	2383
 3116 0258 5F090000 		.word	2399
 3117 025c 6F090000 		.word	2415
 3118 0260 7F090000 		.word	2431
 3119 0264 8F090000 		.word	2447
 3120 0268 9F090000 		.word	2463
 3121 026c AF090000 		.word	2479
 3122 0270 BF090000 		.word	2495
 3123 0274 CF090000 		.word	2511
 3124 0278 DF090000 		.word	2527
 3125 027c EF090000 		.word	2543
 3126 0280 FF090000 		.word	2559
 3127 0284 0F0A0000 		.word	2575
 3128 0288 1F0A0000 		.word	2591
 3129 028c 2F0A0000 		.word	2607
 3130 0290 3F0A0000 		.word	2623
 3131 0294 4F0A0000 		.word	2639
 3132 0298 5F0A0000 		.word	2655
 3133 029c 6F0A0000 		.word	2671
 3134 02a0 7F0A0000 		.word	2687
ARM GAS  C:\Users\nhlan\AppData\Local\Temp\ccrObDJv.s 			page 85


 3135 02a4 8F0A0000 		.word	2703
 3136 02a8 9F0A0000 		.word	2719
 3137 02ac AF0A0000 		.word	2735
 3138 02b0 BF0A0000 		.word	2751
 3139 02b4 CF0A0000 		.word	2767
 3140 02b8 DF0A0000 		.word	2783
 3141 02bc EF0A0000 		.word	2799
 3142 02c0 FF0A0000 		.word	2815
 3143 02c4 0F0B0000 		.word	2831
 3144 02c8 1F0B0000 		.word	2847
 3145 02cc 2F0B0000 		.word	2863
 3146 02d0 3F0B0000 		.word	2879
 3147 02d4 4F0B0000 		.word	2895
 3148 02d8 5F0B0000 		.word	2911
 3149 02dc 6F0B0000 		.word	2927
 3150 02e0 7F0B0000 		.word	2943
 3151 02e4 8F0B0000 		.word	2959
 3152 02e8 9F0B0000 		.word	2975
 3153 02ec AF0B0000 		.word	2991
 3154 02f0 BF0B0000 		.word	3007
 3155 02f4 CF0B0000 		.word	3023
 3156 02f8 DF0B0000 		.word	3039
 3157 02fc EF0B0000 		.word	3055
 3158 0300 FF0B0000 		.word	3071
 3159 0304 0F0C0000 		.word	3087
 3160 0308 1F0C0000 		.word	3103
 3161 030c 2F0C0000 		.word	3119
 3162 0310 3F0C0000 		.word	3135
 3163 0314 4F0C0000 		.word	3151
 3164 0318 5F0C0000 		.word	3167
 3165 031c 6F0C0000 		.word	3183
 3166 0320 7F0C0000 		.word	3199
 3167 0324 8F0C0000 		.word	3215
 3168 0328 9F0C0000 		.word	3231
 3169 032c AF0C0000 		.word	3247
 3170 0330 BF0C0000 		.word	3263
 3171 0334 CF0C0000 		.word	3279
 3172 0338 DF0C0000 		.word	3295
 3173 033c EF0C0000 		.word	3311
 3174 0340 FF0C0000 		.word	3327
 3175 0344 0F0D0000 		.word	3343
 3176 0348 1F0D0000 		.word	3359
 3177 034c 2F0D0000 		.word	3375
 3178 0350 3F0D0000 		.word	3391
 3179 0354 4F0D0000 		.word	3407
 3180 0358 5F0D0000 		.word	3423
 3181 035c 6F0D0000 		.word	3439
 3182 0360 7F0D0000 		.word	3455
 3183 0364 8F0D0000 		.word	3471
 3184 0368 9F0D0000 		.word	3487
 3185 036c AF0D0000 		.word	3503
 3186 0370 BF0D0000 		.word	3519
 3187 0374 CF0D0000 		.word	3535
 3188 0378 DF0D0000 		.word	3551
 3189 037c EF0D0000 		.word	3567
 3190 0380 FF0D0000 		.word	3583
 3191 0384 0F0E0000 		.word	3599
ARM GAS  C:\Users\nhlan\AppData\Local\Temp\ccrObDJv.s 			page 86


 3192 0388 1F0E0000 		.word	3615
 3193 038c 2F0E0000 		.word	3631
 3194 0390 3F0E0000 		.word	3647
 3195 0394 4F0E0000 		.word	3663
 3196 0398 5F0E0000 		.word	3679
 3197 039c 6F0E0000 		.word	3695
 3198 03a0 7F0E0000 		.word	3711
 3199 03a4 8F0E0000 		.word	3727
 3200 03a8 9F0E0000 		.word	3743
 3201 03ac AF0E0000 		.word	3759
 3202 03b0 BF0E0000 		.word	3775
 3203 03b4 CF0E0000 		.word	3791
 3204 03b8 DF0E0000 		.word	3807
 3205 03bc EF0E0000 		.word	3823
 3206 03c0 FF0E0000 		.word	3839
 3207 03c4 0F0F0000 		.word	3855
 3208 03c8 1F0F0000 		.word	3871
 3209 03cc 2F0F0000 		.word	3887
 3210 03d0 3F0F0000 		.word	3903
 3211 03d4 4F0F0000 		.word	3919
 3212 03d8 5F0F0000 		.word	3935
 3213 03dc 6F0F0000 		.word	3951
 3214 03e0 7F0F0000 		.word	3967
 3215 03e4 8F0F0000 		.word	3983
 3216 03e8 9F0F0000 		.word	3999
 3217 03ec AF0F0000 		.word	4015
 3218 03f0 BF0F0000 		.word	4031
 3219 03f4 CF0F0000 		.word	4047
 3220 03f8 DF0F0000 		.word	4063
 3221 03fc EF0F0000 		.word	4079
 3222              		.global	Sin_LUT
 3223              		.section	.data.Sin_LUT,"aw"
 3224              		.align	2
 3227              	Sin_LUT:
 3228 0000 FF070000 		.word	2047
 3229 0004 31080000 		.word	2097
 3230 0008 63080000 		.word	2147
 3231 000c 96080000 		.word	2198
 3232 0010 C8080000 		.word	2248
 3233 0014 FA080000 		.word	2298
 3234 0018 2B090000 		.word	2347
 3235 001c 5D090000 		.word	2397
 3236 0020 8E090000 		.word	2446
 3237 0024 C0090000 		.word	2496
 3238 0028 F1090000 		.word	2545
 3239 002c 210A0000 		.word	2593
 3240 0030 510A0000 		.word	2641
 3241 0034 810A0000 		.word	2689
 3242 0038 B10A0000 		.word	2737
 3243 003c E00A0000 		.word	2784
 3244 0040 0F0B0000 		.word	2831
 3245 0044 3D0B0000 		.word	2877
 3246 0048 6A0B0000 		.word	2922
 3247 004c 980B0000 		.word	2968
 3248 0050 C40B0000 		.word	3012
 3249 0054 F00B0000 		.word	3056
 3250 0058 1C0C0000 		.word	3100
ARM GAS  C:\Users\nhlan\AppData\Local\Temp\ccrObDJv.s 			page 87


 3251 005c 460C0000 		.word	3142
 3252 0060 710C0000 		.word	3185
 3253 0064 9A0C0000 		.word	3226
 3254 0068 C30C0000 		.word	3267
 3255 006c EB0C0000 		.word	3307
 3256 0070 120D0000 		.word	3346
 3257 0074 380D0000 		.word	3384
 3258 0078 5E0D0000 		.word	3422
 3259 007c 830D0000 		.word	3459
 3260 0080 A70D0000 		.word	3495
 3261 0084 CA0D0000 		.word	3530
 3262 0088 EC0D0000 		.word	3564
 3263 008c 0D0E0000 		.word	3597
 3264 0090 2E0E0000 		.word	3630
 3265 0094 4D0E0000 		.word	3661
 3266 0098 6C0E0000 		.word	3692
 3267 009c 890E0000 		.word	3721
 3268 00a0 A50E0000 		.word	3749
 3269 00a4 C10E0000 		.word	3777
 3270 00a8 DB0E0000 		.word	3803
 3271 00ac F50E0000 		.word	3829
 3272 00b0 0D0F0000 		.word	3853
 3273 00b4 240F0000 		.word	3876
 3274 00b8 3A0F0000 		.word	3898
 3275 00bc 4F0F0000 		.word	3919
 3276 00c0 630F0000 		.word	3939
 3277 00c4 750F0000 		.word	3957
 3278 00c8 870F0000 		.word	3975
 3279 00cc 970F0000 		.word	3991
 3280 00d0 A60F0000 		.word	4006
 3281 00d4 B40F0000 		.word	4020
 3282 00d8 C10F0000 		.word	4033
 3283 00dc CD0F0000 		.word	4045
 3284 00e0 D70F0000 		.word	4055
 3285 00e4 E00F0000 		.word	4064
 3286 00e8 E80F0000 		.word	4072
 3287 00ec EF0F0000 		.word	4079
 3288 00f0 F50F0000 		.word	4085
 3289 00f4 F90F0000 		.word	4089
 3290 00f8 FC0F0000 		.word	4092
 3291 00fc FE0F0000 		.word	4094
 3292 0100 FF0F0000 		.word	4095
 3293 0104 FE0F0000 		.word	4094
 3294 0108 FC0F0000 		.word	4092
 3295 010c F90F0000 		.word	4089
 3296 0110 F50F0000 		.word	4085
 3297 0114 EF0F0000 		.word	4079
 3298 0118 E80F0000 		.word	4072
 3299 011c E00F0000 		.word	4064
 3300 0120 D70F0000 		.word	4055
 3301 0124 CD0F0000 		.word	4045
 3302 0128 C10F0000 		.word	4033
 3303 012c B40F0000 		.word	4020
 3304 0130 A60F0000 		.word	4006
 3305 0134 970F0000 		.word	3991
 3306 0138 870F0000 		.word	3975
 3307 013c 750F0000 		.word	3957
ARM GAS  C:\Users\nhlan\AppData\Local\Temp\ccrObDJv.s 			page 88


 3308 0140 630F0000 		.word	3939
 3309 0144 4F0F0000 		.word	3919
 3310 0148 3A0F0000 		.word	3898
 3311 014c 240F0000 		.word	3876
 3312 0150 0D0F0000 		.word	3853
 3313 0154 F50E0000 		.word	3829
 3314 0158 DB0E0000 		.word	3803
 3315 015c C10E0000 		.word	3777
 3316 0160 A50E0000 		.word	3749
 3317 0164 890E0000 		.word	3721
 3318 0168 6C0E0000 		.word	3692
 3319 016c 4D0E0000 		.word	3661
 3320 0170 2E0E0000 		.word	3630
 3321 0174 0D0E0000 		.word	3597
 3322 0178 EC0D0000 		.word	3564
 3323 017c CA0D0000 		.word	3530
 3324 0180 A70D0000 		.word	3495
 3325 0184 830D0000 		.word	3459
 3326 0188 5E0D0000 		.word	3422
 3327 018c 380D0000 		.word	3384
 3328 0190 120D0000 		.word	3346
 3329 0194 EB0C0000 		.word	3307
 3330 0198 C30C0000 		.word	3267
 3331 019c 9A0C0000 		.word	3226
 3332 01a0 710C0000 		.word	3185
 3333 01a4 460C0000 		.word	3142
 3334 01a8 1C0C0000 		.word	3100
 3335 01ac F00B0000 		.word	3056
 3336 01b0 C40B0000 		.word	3012
 3337 01b4 980B0000 		.word	2968
 3338 01b8 6A0B0000 		.word	2922
 3339 01bc 3D0B0000 		.word	2877
 3340 01c0 0F0B0000 		.word	2831
 3341 01c4 E00A0000 		.word	2784
 3342 01c8 B10A0000 		.word	2737
 3343 01cc 810A0000 		.word	2689
 3344 01d0 510A0000 		.word	2641
 3345 01d4 210A0000 		.word	2593
 3346 01d8 F1090000 		.word	2545
 3347 01dc C0090000 		.word	2496
 3348 01e0 8E090000 		.word	2446
 3349 01e4 5D090000 		.word	2397
 3350 01e8 2B090000 		.word	2347
 3351 01ec FA080000 		.word	2298
 3352 01f0 C8080000 		.word	2248
 3353 01f4 96080000 		.word	2198
 3354 01f8 63080000 		.word	2147
 3355 01fc 31080000 		.word	2097
 3356 0200 FF070000 		.word	2047
 3357 0204 CD070000 		.word	1997
 3358 0208 9B070000 		.word	1947
 3359 020c 68070000 		.word	1896
 3360 0210 36070000 		.word	1846
 3361 0214 04070000 		.word	1796
 3362 0218 D3060000 		.word	1747
 3363 021c A1060000 		.word	1697
 3364 0220 70060000 		.word	1648
ARM GAS  C:\Users\nhlan\AppData\Local\Temp\ccrObDJv.s 			page 89


 3365 0224 3E060000 		.word	1598
 3366 0228 0D060000 		.word	1549
 3367 022c DD050000 		.word	1501
 3368 0230 AD050000 		.word	1453
 3369 0234 7D050000 		.word	1405
 3370 0238 4D050000 		.word	1357
 3371 023c 1E050000 		.word	1310
 3372 0240 EF040000 		.word	1263
 3373 0244 C1040000 		.word	1217
 3374 0248 94040000 		.word	1172
 3375 024c 66040000 		.word	1126
 3376 0250 3A040000 		.word	1082
 3377 0254 0E040000 		.word	1038
 3378 0258 E2030000 		.word	994
 3379 025c B8030000 		.word	952
 3380 0260 8D030000 		.word	909
 3381 0264 64030000 		.word	868
 3382 0268 3B030000 		.word	827
 3383 026c 13030000 		.word	787
 3384 0270 EC020000 		.word	748
 3385 0274 C6020000 		.word	710
 3386 0278 A0020000 		.word	672
 3387 027c 7B020000 		.word	635
 3388 0280 57020000 		.word	599
 3389 0284 34020000 		.word	564
 3390 0288 12020000 		.word	530
 3391 028c F1010000 		.word	497
 3392 0290 D0010000 		.word	464
 3393 0294 B1010000 		.word	433
 3394 0298 92010000 		.word	402
 3395 029c 75010000 		.word	373
 3396 02a0 59010000 		.word	345
 3397 02a4 3D010000 		.word	317
 3398 02a8 23010000 		.word	291
 3399 02ac 09010000 		.word	265
 3400 02b0 F1000000 		.word	241
 3401 02b4 DA000000 		.word	218
 3402 02b8 C4000000 		.word	196
 3403 02bc AF000000 		.word	175
 3404 02c0 9B000000 		.word	155
 3405 02c4 89000000 		.word	137
 3406 02c8 77000000 		.word	119
 3407 02cc 67000000 		.word	103
 3408 02d0 58000000 		.word	88
 3409 02d4 4A000000 		.word	74
 3410 02d8 3D000000 		.word	61
 3411 02dc 31000000 		.word	49
 3412 02e0 27000000 		.word	39
 3413 02e4 1E000000 		.word	30
 3414 02e8 16000000 		.word	22
 3415 02ec 0F000000 		.word	15
 3416 02f0 09000000 		.word	9
 3417 02f4 05000000 		.word	5
 3418 02f8 02000000 		.word	2
 3419 02fc 00000000 		.word	0
 3420 0300 00000000 		.word	0
 3421 0304 00000000 		.word	0
ARM GAS  C:\Users\nhlan\AppData\Local\Temp\ccrObDJv.s 			page 90


 3422 0308 02000000 		.word	2
 3423 030c 05000000 		.word	5
 3424 0310 09000000 		.word	9
 3425 0314 0F000000 		.word	15
 3426 0318 16000000 		.word	22
 3427 031c 1E000000 		.word	30
 3428 0320 27000000 		.word	39
 3429 0324 31000000 		.word	49
 3430 0328 3D000000 		.word	61
 3431 032c 4A000000 		.word	74
 3432 0330 58000000 		.word	88
 3433 0334 67000000 		.word	103
 3434 0338 77000000 		.word	119
 3435 033c 89000000 		.word	137
 3436 0340 9B000000 		.word	155
 3437 0344 AF000000 		.word	175
 3438 0348 C4000000 		.word	196
 3439 034c DA000000 		.word	218
 3440 0350 F1000000 		.word	241
 3441 0354 09010000 		.word	265
 3442 0358 23010000 		.word	291
 3443 035c 3D010000 		.word	317
 3444 0360 59010000 		.word	345
 3445 0364 75010000 		.word	373
 3446 0368 92010000 		.word	402
 3447 036c B1010000 		.word	433
 3448 0370 D0010000 		.word	464
 3449 0374 F1010000 		.word	497
 3450 0378 12020000 		.word	530
 3451 037c 34020000 		.word	564
 3452 0380 57020000 		.word	599
 3453 0384 7B020000 		.word	635
 3454 0388 A0020000 		.word	672
 3455 038c C6020000 		.word	710
 3456 0390 EC020000 		.word	748
 3457 0394 13030000 		.word	787
 3458 0398 3B030000 		.word	827
 3459 039c 64030000 		.word	868
 3460 03a0 8D030000 		.word	909
 3461 03a4 B8030000 		.word	952
 3462 03a8 E2030000 		.word	994
 3463 03ac 0E040000 		.word	1038
 3464 03b0 3A040000 		.word	1082
 3465 03b4 66040000 		.word	1126
 3466 03b8 94040000 		.word	1172
 3467 03bc C1040000 		.word	1217
 3468 03c0 EF040000 		.word	1263
 3469 03c4 1E050000 		.word	1310
 3470 03c8 4D050000 		.word	1357
 3471 03cc 7D050000 		.word	1405
 3472 03d0 AD050000 		.word	1453
 3473 03d4 DD050000 		.word	1501
 3474 03d8 0D060000 		.word	1549
 3475 03dc 3E060000 		.word	1598
 3476 03e0 70060000 		.word	1648
 3477 03e4 A1060000 		.word	1697
 3478 03e8 D3060000 		.word	1747
ARM GAS  C:\Users\nhlan\AppData\Local\Temp\ccrObDJv.s 			page 91


 3479 03ec 04070000 		.word	1796
 3480 03f0 36070000 		.word	1846
 3481 03f4 68070000 		.word	1896
 3482 03f8 9B070000 		.word	1947
 3483 03fc CD070000 		.word	1997
 3484              		.global	hdma_tim2_ch1
 3485              		.section	.bss.hdma_tim2_ch1,"aw",%nobits
 3486              		.align	2
 3489              	hdma_tim2_ch1:
 3490 0000 00000000 		.space	96
 3490      00000000 
 3490      00000000 
 3490      00000000 
 3490      00000000 
 3491              		.global	htim3
 3492              		.section	.bss.htim3,"aw",%nobits
 3493              		.align	2
 3496              	htim3:
 3497 0000 00000000 		.space	72
 3497      00000000 
 3497      00000000 
 3497      00000000 
 3497      00000000 
 3498              		.global	htim2
 3499              		.section	.bss.htim2,"aw",%nobits
 3500              		.align	2
 3503              	htim2:
 3504 0000 00000000 		.space	72
 3504      00000000 
 3504      00000000 
 3504      00000000 
 3504      00000000 
 3505              		.text
 3506              	.Letext0:
 3507              		.file 3 "Drivers/CMSIS/Device/ST/STM32F4xx/Include/stm32f446xx.h"
 3508              		.file 4 "C:/Users/nhlan/AppData/Roaming/Code/User/globalStorage/bmd.stm32-for-vscode/@xpack-dev-to
 3509              		.file 5 "C:/Users/nhlan/AppData/Roaming/Code/User/globalStorage/bmd.stm32-for-vscode/@xpack-dev-to
 3510              		.file 6 "Drivers/STM32F4xx_HAL_Driver/Inc/stm32f4xx_hal_def.h"
 3511              		.file 7 "Drivers/STM32F4xx_HAL_Driver/Inc/stm32f4xx_hal_rcc_ex.h"
 3512              		.file 8 "Drivers/STM32F4xx_HAL_Driver/Inc/stm32f4xx_hal_rcc.h"
 3513              		.file 9 "Drivers/STM32F4xx_HAL_Driver/Inc/stm32f4xx_hal_gpio.h"
 3514              		.file 10 "Drivers/STM32F4xx_HAL_Driver/Inc/stm32f4xx_hal_dma.h"
 3515              		.file 11 "Drivers/STM32F4xx_HAL_Driver/Inc/stm32f4xx_hal_tim.h"
 3516              		.file 12 "Core/Inc/main.h"
 3517              		.file 13 "Drivers/STM32F4xx_HAL_Driver/Inc/stm32f4xx_hal_tim_ex.h"
 3518              		.file 14 "Drivers/STM32F4xx_HAL_Driver/Inc/stm32f4xx_hal_cortex.h"
 3519              		.file 15 "Core/Inc/lcd_stm32f4.h"
 3520              		.file 16 "Drivers/STM32F4xx_HAL_Driver/Inc/stm32f4xx_hal.h"
 3521              		.file 17 "<built-in>"
ARM GAS  C:\Users\nhlan\AppData\Local\Temp\ccrObDJv.s 			page 92

